(imatplotlib.font_manager
FontManager
p1
(dp2
S'afm_lookup_cache'
p3
(dp4
sS'ttflist'
p5
(lp6
ccopy_reg
_reconstructor
p7
(cmatplotlib.font_manager
FontEntry
p8
c__builtin__
object
p9
NtRp10
(dp11
S'style'
p12
S'normal'
p13
sS'name'
p14
S'STIXSizeFourSym'
p15
sS'weight'
p16
I700
sS'stretch'
p17
g13
sS'variant'
p18
g13
sS'fname'
p19
S'/Users/Angelica/anaconda/lib/python2.7/site-packages/matplotlib/mpl-data/fonts/ttf/STIXSizFourSymBol.ttf'
p20
sS'size'
p21
S'scalable'
p22
sbag7
(g8
g9
NtRp23
(dp24
g12
g13
sg14
S'cmsy10'
p25
sg16
I400
sg17
g13
sg18
g13
sg19
S'/Users/Angelica/anaconda/lib/python2.7/site-packages/matplotlib/mpl-data/fonts/ttf/cmsy10.ttf'
p26
sg21
g22
sbag7
(g8
g9
NtRp27
(dp28
g12
g13
sg14
S'Bitstream Vera Serif'
p29
sg16
I700
sg17
g13
sg18
g13
sg19
S'/Users/Angelica/anaconda/lib/python2.7/site-packages/matplotlib/mpl-data/fonts/ttf/VeraSeBd.ttf'
p30
sg21
g22
sbag7
(g8
g9
NtRp31
(dp32
g12
g13
sg14
S'cmss10'
p33
sg16
I400
sg17
g13
sg18
g13
sg19
S'/Users/Angelica/anaconda/lib/python2.7/site-packages/matplotlib/mpl-data/fonts/ttf/cmss10.ttf'
p34
sg21
g22
sbag7
(g8
g9
NtRp35
(dp36
g12
g13
sg14
S'STIXNonUnicode'
p37
sg16
I700
sg17
g13
sg18
g13
sg19
S'/Users/Angelica/anaconda/lib/python2.7/site-packages/matplotlib/mpl-data/fonts/ttf/STIXNonUniBol.ttf'
p38
sg21
g22
sbag7
(g8
g9
NtRp39
(dp40
g12
g13
sg14
S'STIXSizeTwoSym'
p41
sg16
I700
sg17
g13
sg18
g13
sg19
S'/Users/Angelica/anaconda/lib/python2.7/site-packages/matplotlib/mpl-data/fonts/ttf/STIXSizTwoSymBol.ttf'
p42
sg21
g22
sbag7
(g8
g9
NtRp43
(dp44
g12
g13
sg14
S'STIXSizeFiveSym'
p45
sg16
I400
sg17
g13
sg18
g13
sg19
S'/Users/Angelica/anaconda/lib/python2.7/site-packages/matplotlib/mpl-data/fonts/ttf/STIXSizFiveSymReg.ttf'
p46
sg21
g22
sbag7
(g8
g9
NtRp47
(dp48
g12
S'oblique'
p49
sg14
S'Bitstream Vera Sans'
p50
sg16
I400
sg17
g13
sg18
g13
sg19
S'/Users/Angelica/anaconda/lib/python2.7/site-packages/matplotlib/mpl-data/fonts/ttf/VeraIt.ttf'
p51
sg21
g22
sbag7
(g8
g9
NtRp52
(dp53
g12
g49
sg14
S'Bitstream Vera Sans Mono'
p54
sg16
I700
sg17
g13
sg18
g13
sg19
S'/Users/Angelica/anaconda/lib/python2.7/site-packages/matplotlib/mpl-data/fonts/ttf/VeraMoBI.ttf'
p55
sg21
g22
sbag7
(g8
g9
NtRp56
(dp57
g12
S'italic'
p58
sg14
S'STIXNonUnicode'
p59
sg16
I700
sg17
g13
sg18
g13
sg19
S'/Users/Angelica/anaconda/lib/python2.7/site-packages/matplotlib/mpl-data/fonts/ttf/STIXNonUniBolIta.ttf'
p60
sg21
g22
sbag7
(g8
g9
NtRp61
(dp62
g12
g49
sg14
S'Bitstream Vera Sans Mono'
p63
sg16
I400
sg17
g13
sg18
g13
sg19
S'/Users/Angelica/anaconda/lib/python2.7/site-packages/matplotlib/mpl-data/fonts/ttf/VeraMoIt.ttf'
p64
sg21
g22
sbag7
(g8
g9
NtRp65
(dp66
g12
g13
sg14
S'Bitstream Vera Sans'
p67
sg16
I400
sg17
g13
sg18
g13
sg19
S'/Users/Angelica/anaconda/lib/python2.7/site-packages/matplotlib/mpl-data/fonts/ttf/Vera.ttf'
p68
sg21
g22
sbag7
(g8
g9
NtRp69
(dp70
g12
g13
sg14
S'cmb10'
p71
sg16
I400
sg17
g13
sg18
g13
sg19
S'/Users/Angelica/anaconda/lib/python2.7/site-packages/matplotlib/mpl-data/fonts/ttf/cmb10.ttf'
p72
sg21
g22
sbag7
(g8
g9
NtRp73
(dp74
g12
g13
sg14
S'cmmi10'
p75
sg16
I400
sg17
g13
sg18
g13
sg19
S'/Users/Angelica/anaconda/lib/python2.7/site-packages/matplotlib/mpl-data/fonts/ttf/cmmi10.ttf'
p76
sg21
g22
sbag7
(g8
g9
NtRp77
(dp78
g12
g13
sg14
S'STIXSizeOneSym'
p79
sg16
I700
sg17
g13
sg18
g13
sg19
S'/Users/Angelica/anaconda/lib/python2.7/site-packages/matplotlib/mpl-data/fonts/ttf/STIXSizOneSymBol.ttf'
p80
sg21
g22
sbag7
(g8
g9
NtRp81
(dp82
g12
g13
sg14
S'Bitstream Vera Sans Mono'
p83
sg16
I400
sg17
g13
sg18
g13
sg19
S'/Users/Angelica/anaconda/lib/python2.7/site-packages/matplotlib/mpl-data/fonts/ttf/VeraMono.ttf'
p84
sg21
g22
sbag7
(g8
g9
NtRp85
(dp86
g12
g13
sg14
S'STIXSizeThreeSym'
p87
sg16
I700
sg17
g13
sg18
g13
sg19
S'/Users/Angelica/anaconda/lib/python2.7/site-packages/matplotlib/mpl-data/fonts/ttf/STIXSizThreeSymBol.ttf'
p88
sg21
g22
sbag7
(g8
g9
NtRp89
(dp90
g12
g13
sg14
S'STIXGeneral'
p91
sg16
I400
sg17
g13
sg18
g13
sg19
S'/Users/Angelica/anaconda/lib/python2.7/site-packages/matplotlib/mpl-data/fonts/ttf/STIXGeneral.ttf'
p92
sg21
g22
sbag7
(g8
g9
NtRp93
(dp94
g12
g13
sg14
S'STIXSizeTwoSym'
p95
sg16
I400
sg17
g13
sg18
g13
sg19
S'/Users/Angelica/anaconda/lib/python2.7/site-packages/matplotlib/mpl-data/fonts/ttf/STIXSizTwoSymReg.ttf'
p96
sg21
g22
sbag7
(g8
g9
NtRp97
(dp98
g12
g13
sg14
S'cmex10'
p99
sg16
I400
sg17
g13
sg18
g13
sg19
S'/Users/Angelica/anaconda/lib/python2.7/site-packages/matplotlib/mpl-data/fonts/ttf/cmex10.ttf'
p100
sg21
g22
sbag7
(g8
g9
NtRp101
(dp102
g12
g13
sg14
S'cmtt10'
p103
sg16
I400
sg17
g13
sg18
g13
sg19
S'/Users/Angelica/anaconda/lib/python2.7/site-packages/matplotlib/mpl-data/fonts/ttf/cmtt10.ttf'
p104
sg21
g22
sbag7
(g8
g9
NtRp105
(dp106
g12
g13
sg14
S'STIXSizeFourSym'
p107
sg16
I400
sg17
g13
sg18
g13
sg19
S'/Users/Angelica/anaconda/lib/python2.7/site-packages/matplotlib/mpl-data/fonts/ttf/STIXSizFourSymReg.ttf'
p108
sg21
g22
sbag7
(g8
g9
NtRp109
(dp110
g12
g13
sg14
S'STIXGeneral'
p111
sg16
I700
sg17
g13
sg18
g13
sg19
S'/Users/Angelica/anaconda/lib/python2.7/site-packages/matplotlib/mpl-data/fonts/ttf/STIXGeneralBol.ttf'
p112
sg21
g22
sbag7
(g8
g9
NtRp113
(dp114
g12
g13
sg14
S'cmr10'
p115
sg16
I400
sg17
g13
sg18
g13
sg19
S'/Users/Angelica/anaconda/lib/python2.7/site-packages/matplotlib/mpl-data/fonts/ttf/cmr10.ttf'
p116
sg21
g22
sbag7
(g8
g9
NtRp117
(dp118
g12
g13
sg14
S'STIXSizeThreeSym'
p119
sg16
I400
sg17
g13
sg18
g13
sg19
S'/Users/Angelica/anaconda/lib/python2.7/site-packages/matplotlib/mpl-data/fonts/ttf/STIXSizThreeSymReg.ttf'
p120
sg21
g22
sbag7
(g8
g9
NtRp121
(dp122
g12
g13
sg14
S'STIXSizeOneSym'
p123
sg16
I400
sg17
g13
sg18
g13
sg19
S'/Users/Angelica/anaconda/lib/python2.7/site-packages/matplotlib/mpl-data/fonts/ttf/STIXSizOneSymReg.ttf'
p124
sg21
g22
sbag7
(g8
g9
NtRp125
(dp126
g12
g49
sg14
S'Bitstream Vera Sans'
p127
sg16
I700
sg17
g13
sg18
g13
sg19
S'/Users/Angelica/anaconda/lib/python2.7/site-packages/matplotlib/mpl-data/fonts/ttf/VeraBI.ttf'
p128
sg21
g22
sbag7
(g8
g9
NtRp129
(dp130
g12
g58
sg14
S'STIXGeneral'
p131
sg16
I400
sg17
g13
sg18
g13
sg19
S'/Users/Angelica/anaconda/lib/python2.7/site-packages/matplotlib/mpl-data/fonts/ttf/STIXGeneralItalic.ttf'
p132
sg21
g22
sbag7
(g8
g9
NtRp133
(dp134
g12
g58
sg14
S'STIXNonUnicode'
p135
sg16
I400
sg17
g13
sg18
g13
sg19
S'/Users/Angelica/anaconda/lib/python2.7/site-packages/matplotlib/mpl-data/fonts/ttf/STIXNonUniIta.ttf'
p136
sg21
g22
sbag7
(g8
g9
NtRp137
(dp138
g12
g13
sg14
S'Bitstream Vera Serif'
p139
sg16
I400
sg17
g13
sg18
g13
sg19
S'/Users/Angelica/anaconda/lib/python2.7/site-packages/matplotlib/mpl-data/fonts/ttf/VeraSe.ttf'
p140
sg21
g22
sbag7
(g8
g9
NtRp141
(dp142
g12
g13
sg14
S'Bitstream Vera Sans'
p143
sg16
I700
sg17
g13
sg18
g13
sg19
S'/Users/Angelica/anaconda/lib/python2.7/site-packages/matplotlib/mpl-data/fonts/ttf/VeraBd.ttf'
p144
sg21
g22
sbag7
(g8
g9
NtRp145
(dp146
g12
g13
sg14
S'Bitstream Vera Sans Mono'
p147
sg16
I700
sg17
g13
sg18
g13
sg19
S'/Users/Angelica/anaconda/lib/python2.7/site-packages/matplotlib/mpl-data/fonts/ttf/VeraMoBd.ttf'
p148
sg21
g22
sbag7
(g8
g9
NtRp149
(dp150
g12
g13
sg14
S'STIXNonUnicode'
p151
sg16
I400
sg17
g13
sg18
g13
sg19
S'/Users/Angelica/anaconda/lib/python2.7/site-packages/matplotlib/mpl-data/fonts/ttf/STIXNonUni.ttf'
p152
sg21
g22
sbag7
(g8
g9
NtRp153
(dp154
g12
g58
sg14
S'STIXGeneral'
p155
sg16
I700
sg17
g13
sg18
g13
sg19
S'/Users/Angelica/anaconda/lib/python2.7/site-packages/matplotlib/mpl-data/fonts/ttf/STIXGeneralBolIta.ttf'
p156
sg21
g22
sbag7
(g8
g9
NtRp157
(dp158
g12
g58
sg14
S'Trebuchet MS'
p159
sg16
I400
sg17
g13
sg18
g13
sg19
S'/Library/Fonts/Trebuchet MS Italic.ttf'
p160
sg21
g22
sbag7
(g8
g9
NtRp161
(dp162
g12
g13
sg14
S'Mshtakan'
p163
sg16
I400
sg17
g13
sg18
g13
sg19
S'/Library/Fonts/MshtakanRegular.ttf'
p164
sg21
g22
sbag7
(g8
g9
NtRp165
(dp166
g12
g58
sg14
S'Myriad Pro'
p167
sg16
I400
sg17
S'condensed'
p168
sg18
g13
sg19
S'/Library/Fonts/MyriadPro-CondIt.otf'
p169
sg21
g22
sbag7
(g8
g9
NtRp170
(dp171
g12
g13
sg14
S'Poplar Std'
p172
sg16
I900
sg17
g13
sg18
g13
sg19
S'/Library/Fonts/PoplarStd.otf'
p173
sg21
g22
sbag7
(g8
g9
NtRp174
(dp175
g12
g13
sg14
S'Kozuka Gothic Pr6N'
p176
sg16
I400
sg17
g13
sg18
g13
sg19
S'/Library/Fonts/KozGoPr6N-ExtraLight.otf'
p177
sg21
g22
sbag7
(g8
g9
NtRp178
(dp179
g12
g58
sg14
S'Gill Sans MT'
p180
sg16
I400
sg17
g13
sg18
g13
sg19
S'/Library/Fonts/Microsoft/Gill Sans MT Italic.ttf'
p181
sg21
g22
sbag7
(g8
g9
NtRp182
(dp183
g12
g13
sg14
S'AppleMyungjo'
p184
sg16
I400
sg17
g13
sg18
g13
sg19
S'/Library/Fonts/AppleMyungjo.ttf'
p185
sg21
g22
sbag7
(g8
g9
NtRp186
(dp187
g12
g13
sg14
S'Osaka'
p188
sg16
I400
sg17
g13
sg18
g13
sg19
S'/Library/Fonts/Osaka.ttf'
p189
sg21
g22
sbag7
(g8
g9
NtRp190
(dp191
g12
g13
sg14
S'STIXSizeThreeSym'
p192
sg16
I700
sg17
g13
sg18
g13
sg19
S'/Library/Fonts/STIXSizThreeSymBol.otf'
p193
sg21
g22
sbag7
(g8
g9
NtRp194
(dp195
g12
g13
sg14
S'Symbol'
p196
sg16
I400
sg17
g13
sg18
g13
sg19
S'/System/Library/Fonts/Symbol.ttf'
p197
sg21
g22
sbag7
(g8
g9
NtRp198
(dp199
g12
g13
sg14
S'Al Bayan'
p200
sg16
I400
sg17
g13
sg18
g13
sg19
S'/Library/Fonts/AlBayan.ttf'
p201
sg21
g22
sbag7
(g8
g9
NtRp202
(dp203
g12
g13
sg14
S'Candara'
p204
sg16
I700
sg17
g13
sg18
g13
sg19
S'/Library/Fonts/Microsoft/Candara Bold.ttf'
p205
sg21
g22
sbag7
(g8
g9
NtRp206
(dp207
g12
g13
sg14
S'Tw Cen MT'
p208
sg16
I400
sg17
g13
sg18
g13
sg19
S'/Library/Fonts/Microsoft/Tw Cen MT.ttf'
p209
sg21
g22
sbag7
(g8
g9
NtRp210
(dp211
g12
g58
sg14
S'Myriad Pro'
p212
sg16
I400
sg17
g13
sg18
g13
sg19
S'/Library/Fonts/MyriadPro-It.otf'
p213
sg21
g22
sbag7
(g8
g9
NtRp214
(dp215
g12
g13
sg14
S'Corbel'
p216
sg16
I700
sg17
g13
sg18
g13
sg19
S'/Library/Fonts/Microsoft/Corbel Bold.ttf'
p217
sg21
g22
sbag7
(g8
g9
NtRp218
(dp219
g12
g13
sg14
S'Nadeem'
p220
sg16
I400
sg17
g13
sg18
g13
sg19
S'/Library/Fonts/Nadeem.ttf'
p221
sg21
g22
sbag7
(g8
g9
NtRp222
(dp223
g12
g13
sg14
S'Al Bayan'
p224
sg16
I700
sg17
g13
sg18
g13
sg19
S'/Library/Fonts/AlBayanBold.ttf'
p225
sg21
g22
sbag7
(g8
g9
NtRp226
(dp227
g12
g13
sg14
S'Kozuka Gothic Pr6N'
p228
sg16
I400
sg17
g13
sg18
g13
sg19
S'/Library/Fonts/KozGoPr6N-Regular.otf'
p229
sg21
g22
sbag7
(g8
g9
NtRp230
(dp231
g12
g13
sg14
S'Tekton Pro'
p232
sg16
I700
sg17
g13
sg18
g13
sg19
S'/Library/Fonts/TektonPro-Bold.otf'
p233
sg21
g22
sbag7
(g8
g9
NtRp234
(dp235
g12
g13
sg14
S'Mshtakan'
p236
sg16
I700
sg17
g13
sg18
g13
sg19
S'/Library/Fonts/MshtakanBold.ttf'
p237
sg21
g22
sbag7
(g8
g9
NtRp238
(dp239
g12
g58
sg14
S'Myriad Arabic'
p240
sg16
I400
sg17
g13
sg18
g13
sg19
S'/Library/Fonts/MyriadArabic-It.otf'
p241
sg21
g22
sbag7
(g8
g9
NtRp242
(dp243
g12
g58
sg14
S'Nueva Std'
p244
sg16
I400
sg17
g13
sg18
g13
sg19
S'/Library/Fonts/NuevaStd-Italic.otf'
p245
sg21
g22
sbag7
(g8
g9
NtRp246
(dp247
g12
g13
sg14
S'Calibri'
p248
sg16
I200
sg17
g13
sg18
g13
sg19
S'/Library/Fonts/Microsoft/Calibril.ttf'
p249
sg21
g22
sbag7
(g8
g9
NtRp250
(dp251
g12
g13
sg14
S'Letter Gothic Std'
p252
sg16
I500
sg17
g13
sg18
g13
sg19
S'/Library/Fonts/LetterGothicStd.otf'
p253
sg21
g22
sbag7
(g8
g9
NtRp254
(dp255
g12
g13
sg14
S'STIXSizeFiveSym'
p256
sg16
I400
sg17
g13
sg18
g13
sg19
S'/Library/Fonts/STIXSizFiveSymReg.otf'
p257
sg21
g22
sbag7
(g8
g9
NtRp258
(dp259
g12
g13
sg14
S'Gurmukhi MT'
p260
sg16
I400
sg17
g13
sg18
g13
sg19
S'/Library/Fonts/Gurmukhi.ttf'
p261
sg21
g22
sbag7
(g8
g9
NtRp262
(dp263
g12
g13
sg14
S'YuGothic'
p264
sg16
I700
sg17
g13
sg18
g13
sg19
S'/Library/Fonts/Yu Gothic Bold.otf'
p265
sg21
g22
sbag7
(g8
g9
NtRp266
(dp267
g12
g13
sg14
S'Apple Color Emoji'
p268
sg16
I400
sg17
g13
sg18
g13
sg19
S'/System/Library/Fonts/Apple Color Emoji.ttf'
p269
sg21
g22
sbag7
(g8
g9
NtRp270
(dp271
g12
g58
sg14
S'Cambria'
p272
sg16
I400
sg17
g13
sg18
g13
sg19
S'/Library/Fonts/Microsoft/Cambria Italic.ttf'
p273
sg21
g22
sbag7
(g8
g9
NtRp274
(dp275
g12
g49
sg14
S'Tekton Pro'
p276
sg16
I700
sg17
g13
sg18
g13
sg19
S'/Library/Fonts/TektonPro-BoldObl.otf'
p277
sg21
g22
sbag7
(g8
g9
NtRp278
(dp279
g12
g13
sg14
S'Adobe Myungjo Std'
p280
sg16
I400
sg17
g13
sg18
g13
sg19
S'/Library/Fonts/AdobeMyungjoStd-Medium.otf'
p281
sg21
g22
sbag7
(g8
g9
NtRp282
(dp283
g12
g13
sg14
S'Hiragino Maru Gothic Pro'
p284
sg16
I400
sg17
g13
sg18
g13
sg19
S'/Library/Fonts/\xe3\x83\x92\xe3\x83\xa9\xe3\x82\xad\xe3\x82\x99\xe3\x83\x8e\xe4\xb8\xb8\xe3\x82\xb3\xe3\x82\x99 Pro W4.otf'
p285
sg21
g22
sbag7
(g8
g9
NtRp286
(dp287
g12
g58
sg14
S'Perpetua'
p288
sg16
I700
sg17
g13
sg18
g13
sg19
S'/Library/Fonts/Microsoft/Perpetua Bold Italic.ttf'
p289
sg21
g22
sbag7
(g8
g9
NtRp290
(dp291
g12
g13
sg14
S'Adobe Gothic Std'
p292
sg16
I700
sg17
g13
sg18
g13
sg19
S'/Library/Fonts/AdobeGothicStd-Bold.otf'
p293
sg21
g22
sbag7
(g8
g9
NtRp294
(dp295
g12
g13
sg14
S'Verdana'
p296
sg16
I700
sg17
g13
sg18
g13
sg19
S'/Library/Fonts/Microsoft/Verdana Bold.ttf'
p297
sg21
g22
sbag7
(g8
g9
NtRp298
(dp299
g12
g13
sg14
S'Myriad Pro'
p300
sg16
I700
sg17
g13
sg18
g13
sg19
S'/Library/Fonts/MyriadPro-Semibold.otf'
p301
sg21
g22
sbag7
(g8
g9
NtRp302
(dp303
g12
g13
sg14
S'Verdana'
p304
sg16
I400
sg17
g13
sg18
g13
sg19
S'/Library/Fonts/Microsoft/Verdana.ttf'
p305
sg21
g22
sbag7
(g8
g9
NtRp306
(dp307
g12
g13
sg14
S'Khmer Sangam MN'
p308
sg16
I400
sg17
g13
sg18
g13
sg19
S'/Library/Fonts/Khmer Sangam MN.ttf'
p309
sg21
g22
sbag7
(g8
g9
NtRp310
(dp311
g12
g13
sg14
S'PCMyungjo'
p312
sg16
I400
sg17
g13
sg18
g13
sg19
S'/Library/Fonts/PCmyoungjo.ttf'
p313
sg21
g22
sbag7
(g8
g9
NtRp314
(dp315
g12
g13
sg14
S'MingLiU_HKSCS'
p316
sg16
I400
sg17
g13
sg18
g13
sg19
S'/Library/Fonts/Microsoft/mingliu_hkscs.ttf'
p317
sg21
g22
sbag7
(g8
g9
NtRp318
(dp319
g12
g13
sg14
S'Kozuka Mincho Pr6N'
p320
sg16
I700
sg17
g13
sg18
g13
sg19
S'/Library/Fonts/KozMinPr6N-Bold.otf'
p321
sg21
g22
sbag7
(g8
g9
NtRp322
(dp323
g12
g13
sg14
S'Kokonor'
p324
sg16
I400
sg17
g13
sg18
g13
sg19
S'/Library/Fonts/Kokonor.ttf'
p325
sg21
g22
sbag7
(g8
g9
NtRp326
(dp327
g12
g58
sg14
S'Adobe Devanagari'
p328
sg16
I700
sg17
g13
sg18
g13
sg19
S'/Library/Fonts/AdobeDevanagari-BoldItalic.otf'
p329
sg21
g22
sbag7
(g8
g9
NtRp330
(dp331
g12
g13
sg14
S'Apple Braille'
p332
sg16
I400
sg17
g13
sg18
g13
sg19
S'/System/Library/Fonts/Apple Braille.ttf'
p333
sg21
g22
sbag7
(g8
g9
NtRp334
(dp335
g12
g13
sg14
S'Hiragino Mincho Pro'
p336
sg16
I700
sg17
g13
sg18
g13
sg19
S'/Library/Fonts/\xe3\x83\x92\xe3\x83\xa9\xe3\x82\xad\xe3\x82\x99\xe3\x83\x8e\xe6\x98\x8e\xe6\x9c\x9d Pro W6.otf'
p337
sg21
g22
sbag7
(g8
g9
NtRp338
(dp339
g12
g13
sg14
S'Kailasa'
p340
sg16
I400
sg17
g13
sg18
g13
sg19
S'/Library/Fonts/Kailasa.ttf'
p341
sg21
g22
sbag7
(g8
g9
NtRp342
(dp343
g12
g58
sg14
S'STIXNonUnicode'
p344
sg16
I400
sg17
g13
sg18
g13
sg19
S'/Library/Fonts/STIXNonUniIta.otf'
p345
sg21
g22
sbag7
(g8
g9
NtRp346
(dp347
g12
g13
sg14
S'MS Mincho'
p348
sg16
I400
sg17
g13
sg18
g13
sg19
S'/Library/Fonts/Microsoft/MS Mincho.ttf'
p349
sg21
g22
sbag7
(g8
g9
NtRp350
(dp351
g12
g13
sg14
S'Tekton Pro'
p352
sg16
I700
sg17
g13
sg18
g13
sg19
S'/Library/Fonts/TektonPro-BoldExt.otf'
p353
sg21
g22
sbag7
(g8
g9
NtRp354
(dp355
g12
g58
sg14
S'Chaparral Pro'
p356
sg16
I400
sg17
g13
sg18
g13
sg19
S'/Library/Fonts/ChaparralPro-Italic.otf'
p357
sg21
g22
sbag7
(g8
g9
NtRp358
(dp359
g12
g13
sg14
S'Comic Sans MS'
p360
sg16
I700
sg17
g13
sg18
g13
sg19
S'/Library/Fonts/Comic Sans MS Bold.ttf'
p361
sg21
g22
sbag7
(g8
g9
NtRp362
(dp363
g12
g58
sg14
S'Adobe Garamond Pro'
p364
sg16
I700
sg17
g13
sg18
g13
sg19
S'/Library/Fonts/AGaramondPro-BoldItalic.otf'
p365
sg21
g22
sbag7
(g8
g9
NtRp366
(dp367
g12
g13
sg14
S'Apple SD Gothic Neo'
p368
sg16
I700
sg17
g13
sg18
g13
sg19
S'/Library/Fonts/AppleSDGothicNeo-SemiBold.otf'
p369
sg21
g22
sbag7
(g8
g9
NtRp370
(dp371
g12
g13
sg14
S'STIXNonUnicode'
p372
sg16
I700
sg17
g13
sg18
g13
sg19
S'/Library/Fonts/STIXNonUniBol.otf'
p373
sg21
g22
sbag7
(g8
g9
NtRp374
(dp375
g12
g13
sg14
S'Webdings'
p376
sg16
I400
sg17
g13
sg18
g13
sg19
S'/Library/Fonts/Webdings.ttf'
p377
sg21
g22
sbag7
(g8
g9
NtRp378
(dp379
g12
g13
sg14
S'Apple Braille'
p380
sg16
I400
sg17
g13
sg18
g13
sg19
S'/System/Library/Fonts/Apple Braille Pinpoint 6 Dot.ttf'
p381
sg21
g22
sbag7
(g8
g9
NtRp382
(dp383
g12
g13
sg14
S'Kozuka Mincho Pr6N'
p384
sg16
I700
sg17
g13
sg18
g13
sg19
S'/Library/Fonts/KozMinPr6N-Heavy.otf'
p385
sg21
g22
sbag7
(g8
g9
NtRp386
(dp387
g12
g13
sg14
S'MingLiU_HKSCS-ExtB'
p388
sg16
I400
sg17
g13
sg18
g13
sg19
S'/Library/Fonts/Microsoft/MingLiU_HKSCS-ExtB.ttf'
p389
sg21
g22
sbag7
(g8
g9
NtRp390
(dp391
g12
g13
sg14
S'Kozuka Gothic Pro'
p392
sg16
I700
sg17
g13
sg18
g13
sg19
S'/Library/Fonts/KozGoPro-Heavy.otf'
p393
sg21
g22
sbag7
(g8
g9
NtRp394
(dp395
g12
g58
sg14
S'Franklin Gothic Book'
p396
sg16
I400
sg17
g13
sg18
g13
sg19
S'/Library/Fonts/Microsoft/Franklin Gothic Book Italic.ttf'
p397
sg21
g22
sbag7
(g8
g9
NtRp398
(dp399
g12
g58
sg14
S'Palatino Linotype'
p400
sg16
I700
sg17
g13
sg18
g13
sg19
S'/Library/Fonts/Microsoft/Palatino Linotype Bold Italic.ttf'
p401
sg21
g22
sbag7
(g8
g9
NtRp402
(dp403
g12
g13
sg14
S'STIXIntegralsUpSm'
p404
sg16
I400
sg17
g13
sg18
g13
sg19
S'/Library/Fonts/STIXIntUpSmReg.otf'
p405
sg21
g22
sbag7
(g8
g9
NtRp406
(dp407
g12
g13
sg14
S'Meiryo'
p408
sg16
I400
sg17
g13
sg18
g13
sg19
S'/Library/Fonts/Microsoft/Meiryo.ttf'
p409
sg21
g22
sbag7
(g8
g9
NtRp410
(dp411
g12
g58
sg14
S'Minion Pro'
p412
sg16
I500
sg17
g13
sg18
g13
sg19
S'/Library/Fonts/MinionPro-MediumIt.otf'
p413
sg21
g22
sbag7
(g8
g9
NtRp414
(dp415
g12
g13
sg14
S'Kozuka Mincho Pro'
p416
sg16
I400
sg17
g13
sg18
g13
sg19
S'/Library/Fonts/KozMinPro-Regular.otf'
p417
sg21
g22
sbag7
(g8
g9
NtRp418
(dp419
g12
g13
sg14
S'Kai'
p420
sg16
I400
sg17
g13
sg18
g13
sg19
S'/Library/Fonts/Kai.ttf'
p421
sg21
g22
sbag7
(g8
g9
NtRp422
(dp423
g12
g58
sg14
S'Courier New'
p424
sg16
I400
sg17
g13
sg18
g13
sg19
S'/Library/Fonts/Courier New Italic.ttf'
p425
sg21
g22
sbag7
(g8
g9
NtRp426
(dp427
g12
g58
sg14
S'Verdana'
p428
sg16
I700
sg17
g13
sg18
g13
sg19
S'/Library/Fonts/Microsoft/Verdana Bold Italic.ttf'
p429
sg21
g22
sbag7
(g8
g9
NtRp430
(dp431
g12
g13
sg14
S'Arial Black'
p432
sg16
I900
sg17
g13
sg18
g13
sg19
S'/Library/Fonts/Arial Black.ttf'
p433
sg21
g22
sbag7
(g8
g9
NtRp434
(dp435
g12
g58
sg14
S'Myriad Pro'
p436
sg16
I700
sg17
g13
sg18
g13
sg19
S'/Library/Fonts/MyriadPro-SemiboldIt.otf'
p437
sg21
g22
sbag7
(g8
g9
NtRp438
(dp439
g12
g58
sg14
S'STIXGeneral'
p440
sg16
I400
sg17
g13
sg18
g13
sg19
S'/Library/Fonts/STIXGeneralItalic.otf'
p441
sg21
g22
sbag7
(g8
g9
NtRp442
(dp443
g12
g58
sg14
S'Myriad Pro'
p444
sg16
I700
sg17
g168
sg18
g13
sg19
S'/Library/Fonts/MyriadPro-BoldCondIt.otf'
p445
sg21
g22
sbag7
(g8
g9
NtRp446
(dp447
g12
g13
sg14
S'STIXSizeFourSym'
p448
sg16
I400
sg17
g13
sg18
g13
sg19
S'/Library/Fonts/STIXSizFourSymReg.otf'
p449
sg21
g22
sbag7
(g8
g9
NtRp450
(dp451
g12
g13
sg14
S'Adobe Kaiti Std'
p452
sg16
I400
sg17
g13
sg18
g13
sg19
S'/Library/Fonts/AdobeKaitiStd-Regular.otf'
p453
sg21
g22
sbag7
(g8
g9
NtRp454
(dp455
g12
g13
sg14
S'Microsoft Yi Baiti'
p456
sg16
I400
sg17
g13
sg18
g13
sg19
S'/Library/Fonts/Microsoft/msyi.ttf'
p457
sg21
g22
sbag7
(g8
g9
NtRp458
(dp459
g12
g13
sg14
S'Nueva Std'
p460
sg16
I400
sg17
g168
sg18
g13
sg19
S'/Library/Fonts/NuevaStd-Cond.otf'
p461
sg21
g22
sbag7
(g8
g9
NtRp462
(dp463
g12
g58
sg14
S'Times New Roman'
p464
sg16
I700
sg17
g13
sg18
g13
sg19
S'/Library/Fonts/Microsoft/Times New Roman Bold Italic.ttf'
p465
sg21
g22
sbag7
(g8
g9
NtRp466
(dp467
g12
g13
sg14
S'Wingdings 3'
p468
sg16
I400
sg17
g13
sg18
g13
sg19
S'/Library/Fonts/Microsoft/Wingdings 3.ttf'
p469
sg21
g22
sbag7
(g8
g9
NtRp470
(dp471
g12
g13
sg14
S'Consolas'
p472
sg16
I400
sg17
g13
sg18
g13
sg19
S'/Library/Fonts/Microsoft/Consolas.ttf'
p473
sg21
g22
sbag7
(g8
g9
NtRp474
(dp475
g12
g58
sg14
S'Perpetua'
p476
sg16
I400
sg17
g13
sg18
g13
sg19
S'/Library/Fonts/Microsoft/Perpetua Italic.ttf'
p477
sg21
g22
sbag7
(g8
g9
NtRp478
(dp479
g12
g13
sg14
S'Comic Sans MS'
p480
sg16
I400
sg17
g13
sg18
g13
sg19
S'/Library/Fonts/Comic Sans MS.ttf'
p481
sg21
g22
sbag7
(g8
g9
NtRp482
(dp483
g12
g13
sg14
S'Kozuka Mincho Pr6N'
p484
sg16
I400
sg17
g13
sg18
g13
sg19
S'/Library/Fonts/KozMinPr6N-Light.otf'
p485
sg21
g22
sbag7
(g8
g9
NtRp486
(dp487
g12
g13
sg14
S'PMingLiU'
p488
sg16
I400
sg17
g13
sg18
g13
sg19
S'/Library/Fonts/Microsoft/PMingLiU.ttf'
p489
sg21
g22
sbag7
(g8
g9
NtRp490
(dp491
g12
g13
sg14
S'Arial'
p492
sg16
I400
sg17
g13
sg18
g13
sg19
S'/Library/Fonts/Microsoft/Arial.ttf'
p493
sg21
g22
sbag7
(g8
g9
NtRp494
(dp495
g12
g13
sg14
S'STIXSizeFourSym'
p496
sg16
I700
sg17
g13
sg18
g13
sg19
S'/Library/Fonts/STIXSizFourSymBol.otf'
p497
sg21
g22
sbag7
(g8
g9
NtRp498
(dp499
g12
g13
sg14
S'Kozuka Gothic Pr6N'
p500
sg16
I400
sg17
g13
sg18
g13
sg19
S'/Library/Fonts/KozGoPr6N-Medium.otf'
p501
sg21
g22
sbag7
(g8
g9
NtRp502
(dp503
g12
g13
sg14
S'Marlett'
p504
sg16
I400
sg17
g13
sg18
g13
sg19
S'/Library/Fonts/Microsoft/Marlett.ttf'
p505
sg21
g22
sbag7
(g8
g9
NtRp506
(dp507
g12
g13
sg14
S'Calibri'
p508
sg16
I700
sg17
g13
sg18
g13
sg19
S'/Library/Fonts/Microsoft/Calibri Bold.ttf'
p509
sg21
g22
sbag7
(g8
g9
NtRp510
(dp511
g12
g13
sg14
S'Yuppy SC'
p512
sg16
I400
sg17
g13
sg18
g13
sg19
S'/Library/Fonts/YuppySC-Regular.otf'
p513
sg21
g22
sbag7
(g8
g9
NtRp514
(dp515
g12
g13
sg14
S'Minion Pro'
p516
sg16
I500
sg17
g13
sg18
g13
sg19
S'/Library/Fonts/MinionPro-Medium.otf'
p517
sg21
g22
sbag7
(g8
g9
NtRp518
(dp519
g12
g13
sg14
S'Impact'
p520
sg16
I400
sg17
g13
sg18
g13
sg19
S'/Library/Fonts/Impact.ttf'
p521
sg21
g22
sbag7
(g8
g9
NtRp522
(dp523
g12
g13
sg14
S'Tahoma'
p524
sg16
I700
sg17
g13
sg18
g13
sg19
S'/Library/Fonts/Tahoma Bold.ttf'
p525
sg21
g22
sbag7
(g8
g9
NtRp526
(dp527
g12
g58
sg14
S'Georgia'
p528
sg16
I700
sg17
g13
sg18
g13
sg19
S'/Library/Fonts/Georgia Bold Italic.ttf'
p529
sg21
g22
sbag7
(g8
g9
NtRp530
(dp531
g12
g13
sg14
S'Tekton Pro'
p532
sg16
I700
sg17
g168
sg18
g13
sg19
S'/Library/Fonts/TektonPro-BoldCond.otf'
p533
sg21
g22
sbag7
(g8
g9
NtRp534
(dp535
g12
g58
sg14
S'Myriad Arabic'
p536
sg16
I700
sg17
g13
sg18
g13
sg19
S'/Library/Fonts/MyriadArabic-BoldIt.otf'
p537
sg21
g22
sbag7
(g8
g9
NtRp538
(dp539
g12
g13
sg14
S'Hoefler Text'
p540
sg16
I400
sg17
g13
sg18
g13
sg19
S'/Library/Fonts/Hoefler Text Ornaments.ttf'
p541
sg21
g22
sbag7
(g8
g9
NtRp542
(dp543
g12
g58
sg14
S'Chaparral Pro'
p544
sg16
I200
sg17
g13
sg18
g13
sg19
S'/Library/Fonts/ChaparralPro-LightIt.otf'
p545
sg21
g22
sbag7
(g8
g9
NtRp546
(dp547
g12
g58
sg14
S'Adobe Arabic'
p548
sg16
I400
sg17
g13
sg18
g13
sg19
S'/Library/Fonts/AdobeArabic-Italic.otf'
p549
sg21
g22
sbag7
(g8
g9
NtRp550
(dp551
g12
g13
sg14
S'Hiragino Mincho ProN'
p552
sg16
I700
sg17
g13
sg18
g13
sg19
S'/System/Library/Fonts/\xe3\x83\x92\xe3\x83\xa9\xe3\x82\xad\xe3\x82\x99\xe3\x83\x8e\xe6\x98\x8e\xe6\x9c\x9d ProN W6.otf'
p553
sg21
g22
sbag7
(g8
g9
NtRp554
(dp555
g12
g13
sg14
S'Rosewood Std'
p556
sg16
I400
sg17
g13
sg18
g13
sg19
S'/Library/Fonts/RosewoodStd-Regular.otf'
p557
sg21
g22
sbag7
(g8
g9
NtRp558
(dp559
g12
g13
sg14
S'Adobe Arabic'
p560
sg16
I700
sg17
g13
sg18
g13
sg19
S'/Library/Fonts/AdobeArabic-Bold.otf'
p561
sg21
g22
sbag7
(g8
g9
NtRp562
(dp563
g12
g13
sg14
S'PilGi'
p564
sg16
I400
sg17
g13
sg18
g13
sg19
S'/Library/Fonts/Pilgiche.ttf'
p565
sg21
g22
sbag7
(g8
g9
NtRp566
(dp567
g12
g13
sg14
S'Gill Sans MT'
p568
sg16
I400
sg17
g13
sg18
g13
sg19
S'/Library/Fonts/Microsoft/Gill Sans MT.ttf'
p569
sg21
g22
sbag7
(g8
g9
NtRp570
(dp571
g12
g13
sg14
S'Myriad Arabic'
p572
sg16
I400
sg17
g13
sg18
g13
sg19
S'/Library/Fonts/MyriadArabic-Regular.otf'
p573
sg21
g22
sbag7
(g8
g9
NtRp574
(dp575
g12
g13
sg14
S'Constantia'
p576
sg16
I400
sg17
g13
sg18
g13
sg19
S'/Library/Fonts/Microsoft/Constantia.ttf'
p577
sg21
g22
sbag7
(g8
g9
NtRp578
(dp579
g12
g58
sg14
S'Verdana'
p580
sg16
I400
sg17
g13
sg18
g13
sg19
S'/Library/Fonts/Microsoft/Verdana Italic.ttf'
p581
sg21
g22
sbag7
(g8
g9
NtRp582
(dp583
g12
g13
sg14
S'YuGothic'
p584
sg16
I400
sg17
g13
sg18
g13
sg19
S'/Library/Fonts/Yu Gothic Medium.otf'
p585
sg21
g22
sbag7
(g8
g9
NtRp586
(dp587
g12
g13
sg14
S'Gujarati MT'
p588
sg16
I700
sg17
g13
sg18
g13
sg19
S'/Library/Fonts/GujaratiMTBold.ttf'
p589
sg21
g22
sbag7
(g8
g9
NtRp590
(dp591
g12
g58
sg14
S'Letter Gothic Std'
p592
sg16
I700
sg17
g13
sg18
g13
sg19
S'/Library/Fonts/LetterGothicStd-BoldSlanted.otf'
p593
sg21
g22
sbag7
(g8
g9
NtRp594
(dp595
g12
g58
sg14
S'Nueva Std'
p596
sg16
I400
sg17
g168
sg18
g13
sg19
S'/Library/Fonts/NuevaStd-CondItalic.otf'
p597
sg21
g22
sbag7
(g8
g9
NtRp598
(dp599
g12
g58
sg14
S'Arial'
p600
sg16
I400
sg17
g13
sg18
g13
sg19
S'/Library/Fonts/Microsoft/Arial Italic.ttf'
p601
sg21
g22
sbag7
(g8
g9
NtRp602
(dp603
g12
g13
sg14
S'Zapf Dingbats'
p604
sg16
I400
sg17
g13
sg18
g13
sg19
S'/System/Library/Fonts/ZapfDingbats.ttf'
p605
sg21
g22
sbag7
(g8
g9
NtRp606
(dp607
g12
g58
sg14
S'Calibri'
p608
sg16
I700
sg17
g13
sg18
g13
sg19
S'/Library/Fonts/Microsoft/Calibri Bold Italic.ttf'
p609
sg21
g22
sbag7
(g8
g9
NtRp610
(dp611
g12
g13
sg14
S'Apple LiSung'
p612
sg16
I200
sg17
g13
sg18
g13
sg19
S'/Library/Fonts/Apple LiSung Light.ttf'
p613
sg21
g22
sbag7
(g8
g9
NtRp614
(dp615
g12
g58
sg14
S'Corbel'
p616
sg16
I700
sg17
g13
sg18
g13
sg19
S'/Library/Fonts/Microsoft/Corbel Bold Italic.ttf'
p617
sg21
g22
sbag7
(g8
g9
NtRp618
(dp619
g12
g13
sg14
S'Adobe Garamond Pro'
p620
sg16
I700
sg17
g13
sg18
g13
sg19
S'/Library/Fonts/AGaramondPro-Bold.otf'
p621
sg21
g22
sbag7
(g8
g9
NtRp622
(dp623
g12
g13
sg14
S'Stencil Std'
p624
sg16
I700
sg17
g13
sg18
g13
sg19
S'/Library/Fonts/StencilStd.otf'
p625
sg21
g22
sbag7
(g8
g9
NtRp626
(dp627
g12
g13
sg14
S'Myriad Pro'
p628
sg16
I400
sg17
g13
sg18
g13
sg19
S'/Library/Fonts/MyriadPro-Regular.otf'
p629
sg21
g22
sbag7
(g8
g9
NtRp630
(dp631
g12
g13
sg14
S'Myriad Pro'
p632
sg16
I400
sg17
g168
sg18
g13
sg19
S'/Library/Fonts/MyriadPro-Cond.otf'
p633
sg21
g22
sbag7
(g8
g9
NtRp634
(dp635
g12
g58
sg14
S'Trebuchet MS'
p636
sg16
I700
sg17
g13
sg18
g13
sg19
S'/Library/Fonts/Trebuchet MS Bold Italic.ttf'
p637
sg21
g22
sbag7
(g8
g9
NtRp638
(dp639
g12
g13
sg14
S'STIXIntegralsSm'
p640
sg16
I700
sg17
g13
sg18
g13
sg19
S'/Library/Fonts/STIXIntSmBol.otf'
p641
sg21
g22
sbag7
(g8
g9
NtRp642
(dp643
g12
g13
sg14
S'Adobe Ming Std'
p644
sg16
I400
sg17
g13
sg18
g13
sg19
S'/Library/Fonts/AdobeMingStd-Light.otf'
p645
sg21
g22
sbag7
(g8
g9
NtRp646
(dp647
g12
g13
sg14
S'Meiryo'
p648
sg16
I700
sg17
g13
sg18
g13
sg19
S'/Library/Fonts/Microsoft/Meiryo Bold.ttf'
p649
sg21
g22
sbag7
(g8
g9
NtRp650
(dp651
g12
g13
sg14
S'Cooper Std'
p652
sg16
I900
sg17
g13
sg18
g13
sg19
S'/Library/Fonts/CooperBlackStd.otf'
p653
sg21
g22
sbag7
(g8
g9
NtRp654
(dp655
g12
g13
sg14
S'Kozuka Gothic Pro'
p656
sg16
I400
sg17
g13
sg18
g13
sg19
S'/Library/Fonts/KozGoPro-ExtraLight.otf'
p657
sg21
g22
sbag7
(g8
g9
NtRp658
(dp659
g12
g58
sg14
S'Tw Cen MT'
p660
sg16
I400
sg17
g13
sg18
g13
sg19
S'/Library/Fonts/Microsoft/Tw Cen MT Italic.ttf'
p661
sg21
g22
sbag7
(g8
g9
NtRp662
(dp663
g12
g13
sg14
S'Bookshelf Symbol 7'
p664
sg16
I400
sg17
g13
sg18
g13
sg19
S'/Library/Fonts/Microsoft/Bookshelf Symbol 7.ttf'
p665
sg21
g22
sbag7
(g8
g9
NtRp666
(dp667
g12
g58
sg14
S'Chaparral Pro'
p668
sg16
I700
sg17
g13
sg18
g13
sg19
S'/Library/Fonts/ChaparralPro-BoldIt.otf'
p669
sg21
g22
sbag7
(g8
g9
NtRp670
(dp671
g12
g13
sg14
S'Consolas'
p672
sg16
I700
sg17
g13
sg18
g13
sg19
S'/Library/Fonts/Microsoft/Consolas Bold.ttf'
p673
sg21
g22
sbag7
(g8
g9
NtRp674
(dp675
g12
g13
sg14
S'Adobe Song Std'
p676
sg16
I400
sg17
g13
sg18
g13
sg19
S'/Library/Fonts/AdobeSongStd-Light.otf'
p677
sg21
g22
sbag7
(g8
g9
NtRp678
(dp679
g12
g13
sg14
S'Hiragino Sans GB'
p680
sg16
I400
sg17
g13
sg18
g13
sg19
S'/Library/Fonts/Hiragino Sans GB W3.otf'
p681
sg21
g22
sbag7
(g8
g9
NtRp682
(dp683
g12
g58
sg14
S'Adobe Hebrew'
p684
sg16
I700
sg17
g13
sg18
g13
sg19
S'/Library/Fonts/AdobeHebrew-BoldItalic.otf'
p685
sg21
g22
sbag7
(g8
g9
NtRp686
(dp687
g12
g13
sg14
S'STIXNonUnicode'
p688
sg16
I400
sg17
g13
sg18
g13
sg19
S'/Library/Fonts/STIXNonUni.otf'
p689
sg21
g22
sbag7
(g8
g9
NtRp690
(dp691
g12
g13
sg14
S'Trebuchet MS'
p692
sg16
I700
sg17
g13
sg18
g13
sg19
S'/Library/Fonts/Trebuchet MS Bold.ttf'
p693
sg21
g22
sbag7
(g8
g9
NtRp694
(dp695
g12
g13
sg14
S'LiSong Pro'
p696
sg16
I400
sg17
g13
sg18
g13
sg19
S'/Library/Fonts/\xe5\x84\xb7\xe5\xae\x8b Pro.ttf'
p697
sg21
g22
sbag7
(g8
g9
NtRp698
(dp699
g12
g58
sg14
S'STIXNonUnicode'
p700
sg16
I700
sg17
g13
sg18
g13
sg19
S'/Library/Fonts/STIXNonUniBolIta.otf'
p701
sg21
g22
sbag7
(g8
g9
NtRp702
(dp703
g12
g13
sg14
S'Adobe Devanagari'
p704
sg16
I700
sg17
g13
sg18
g13
sg19
S'/Library/Fonts/AdobeDevanagari-Bold.otf'
p705
sg21
g22
sbag7
(g8
g9
NtRp706
(dp707
g12
g13
sg14
S'Brush Script Std'
p708
sg16
I500
sg17
g13
sg18
g13
sg19
S'/Library/Fonts/BrushScriptStd.otf'
p709
sg21
g22
sbag7
(g8
g9
NtRp710
(dp711
g12
g13
sg14
S'Wawati SC'
p712
sg16
I400
sg17
g13
sg18
g13
sg19
S'/Library/Fonts/WawaSC-Regular.otf'
p713
sg21
g22
sbag7
(g8
g9
NtRp714
(dp715
g12
g13
sg14
S'SimHei'
p716
sg16
I400
sg17
g13
sg18
g13
sg19
S'/Library/Fonts/Microsoft/SimHei.ttf'
p717
sg21
g22
sbag7
(g8
g9
NtRp718
(dp719
g12
g13
sg14
S'Apple SD Gothic Neo'
p720
sg16
I200
sg17
g13
sg18
g13
sg19
S'/Library/Fonts/AppleSDGothicNeo-Light.otf'
p721
sg21
g22
sbag7
(g8
g9
NtRp722
(dp723
g12
g13
sg14
S'Adobe Caslon Pro'
p724
sg16
I700
sg17
g13
sg18
g13
sg19
S'/Library/Fonts/ACaslonPro-Bold.otf'
p725
sg21
g22
sbag7
(g8
g9
NtRp726
(dp727
g12
g13
sg14
S'STIXIntegralsSm'
p728
sg16
I400
sg17
g13
sg18
g13
sg19
S'/Library/Fonts/STIXIntSmReg.otf'
p729
sg21
g22
sbag7
(g8
g9
NtRp730
(dp731
g12
g13
sg14
S'Myriad Pro'
p732
sg16
I700
sg17
g168
sg18
g13
sg19
S'/Library/Fonts/MyriadPro-BoldCond.otf'
p733
sg21
g22
sbag7
(g8
g9
NtRp734
(dp735
g12
g58
sg14
S'Adobe Caslon Pro'
p736
sg16
I400
sg17
g13
sg18
g13
sg19
S'/Library/Fonts/ACaslonPro-Italic.otf'
p737
sg21
g22
sbag7
(g8
g9
NtRp738
(dp739
g12
g13
sg14
S'Georgia'
p740
sg16
I700
sg17
g13
sg18
g13
sg19
S'/Library/Fonts/Georgia Bold.ttf'
p741
sg21
g22
sbag7
(g8
g9
NtRp742
(dp743
g12
g13
sg14
S'Chalkduster'
p744
sg16
I400
sg17
g13
sg18
g13
sg19
S'/Library/Fonts/Chalkduster.ttf'
p745
sg21
g22
sbag7
(g8
g9
NtRp746
(dp747
g12
g13
sg14
S'Weibei TC'
p748
sg16
I700
sg17
g13
sg18
g13
sg19
S'/Library/Fonts/WeibeiTC-Bold.otf'
p749
sg21
g22
sbag7
(g8
g9
NtRp750
(dp751
g12
g58
sg14
S'Minion Pro'
p752
sg16
I700
sg17
g13
sg18
g13
sg19
S'/Library/Fonts/MinionPro-BoldIt.otf'
p753
sg21
g22
sbag7
(g8
g9
NtRp754
(dp755
g12
g13
sg14
S'Adobe Caslon Pro'
p756
sg16
I400
sg17
g13
sg18
g13
sg19
S'/Library/Fonts/ACaslonPro-Regular.otf'
p757
sg21
g22
sbag7
(g8
g9
NtRp758
(dp759
g12
g13
sg14
S'STIXIntegralsUp'
p760
sg16
I400
sg17
g13
sg18
g13
sg19
S'/Library/Fonts/STIXIntUpReg.otf'
p761
sg21
g22
sbag7
(g8
g9
NtRp762
(dp763
g12
g13
sg14
S'Mesquite Std'
p764
sg16
I500
sg17
g13
sg18
g13
sg19
S'/Library/Fonts/MesquiteStd.otf'
p765
sg21
g22
sbag7
(g8
g9
NtRp766
(dp767
g12
g13
sg14
S'Big Caslon'
p768
sg16
I500
sg17
g13
sg18
g13
sg19
S'/Library/Fonts/BigCaslon.ttf'
p769
sg21
g22
sbag7
(g8
g9
NtRp770
(dp771
g12
g58
sg14
S'Adobe Hebrew'
p772
sg16
I400
sg17
g13
sg18
g13
sg19
S'/Library/Fonts/AdobeHebrew-Italic.otf'
p773
sg21
g22
sbag7
(g8
g9
NtRp774
(dp775
g12
g13
sg14
S'Ayuthaya'
p776
sg16
I400
sg17
g13
sg18
g13
sg19
S'/Library/Fonts/Ayuthaya.ttf'
p777
sg21
g22
sbag7
(g8
g9
NtRp778
(dp779
g12
g13
sg14
S'Orator Std'
p780
sg16
I500
sg17
g13
sg18
g13
sg19
S'/Library/Fonts/OratorStd.otf'
p781
sg21
g22
sbag7
(g8
g9
NtRp782
(dp783
g12
g13
sg14
S'Blackoak Std'
p784
sg16
I900
sg17
g13
sg18
g13
sg19
S'/Library/Fonts/BlackoakStd.otf'
p785
sg21
g22
sbag7
(g8
g9
NtRp786
(dp787
g12
g13
sg14
S'Hiragino Kaku Gothic Pro'
p788
sg16
I700
sg17
g13
sg18
g13
sg19
S'/Library/Fonts/\xe3\x83\x92\xe3\x83\xa9\xe3\x82\xad\xe3\x82\x99\xe3\x83\x8e\xe8\xa7\x92\xe3\x82\xb3\xe3\x82\x99 Pro W6.otf'
p789
sg21
g22
sbag7
(g8
g9
NtRp790
(dp791
g12
g58
sg14
S'Minion Pro'
p792
sg16
I400
sg17
g13
sg18
g13
sg19
S'/Library/Fonts/MinionPro-It.otf'
p793
sg21
g22
sbag7
(g8
g9
NtRp794
(dp795
g12
g58
sg14
S'Arial'
p796
sg16
I700
sg17
g13
sg18
g13
sg19
S'/Library/Fonts/Microsoft/Arial Bold Italic.ttf'
p797
sg21
g22
sbag7
(g8
g9
NtRp798
(dp799
g12
g13
sg14
S'Minion Pro'
p800
sg16
I700
sg17
g13
sg18
g13
sg19
S'/Library/Fonts/MinionPro-Bold.otf'
p801
sg21
g22
sbag7
(g8
g9
NtRp802
(dp803
g12
g13
sg14
S'YuMincho'
p804
sg16
I400
sg17
g13
sg18
g13
sg19
S'/Library/Fonts/Yu Mincho Medium.otf'
p805
sg21
g22
sbag7
(g8
g9
NtRp806
(dp807
g12
g58
sg14
S'Minion Pro'
p808
sg16
I700
sg17
g168
sg18
g13
sg19
S'/Library/Fonts/MinionPro-BoldCnIt.otf'
p809
sg21
g22
sbag7
(g8
g9
NtRp810
(dp811
g12
g13
sg14
S'Andale Mono'
p812
sg16
I400
sg17
g13
sg18
g13
sg19
S'/Library/Fonts/Andale Mono.ttf'
p813
sg21
g22
sbag7
(g8
g9
NtRp814
(dp815
g12
g58
sg14
S'Consolas'
p816
sg16
I400
sg17
g13
sg18
g13
sg19
S'/Library/Fonts/Microsoft/Consolas Italic.ttf'
p817
sg21
g22
sbag7
(g8
g9
NtRp818
(dp819
g12
g13
sg14
S'Letter Gothic Std'
p820
sg16
I700
sg17
g13
sg18
g13
sg19
S'/Library/Fonts/LetterGothicStd-Bold.otf'
p821
sg21
g22
sbag7
(g8
g9
NtRp822
(dp823
g12
g13
sg14
S'Silom'
p824
sg16
I400
sg17
g13
sg18
g13
sg19
S'/Library/Fonts/Silom.ttf'
p825
sg21
g22
sbag7
(g8
g9
NtRp826
(dp827
g12
g49
sg14
S'Mshtakan'
p828
sg16
I700
sg17
g13
sg18
g13
sg19
S'/Library/Fonts/MshtakanBoldOblique.ttf'
p829
sg21
g22
sbag7
(g8
g9
NtRp830
(dp831
g12
g58
sg14
S'Calibri'
p832
sg16
I400
sg17
g13
sg18
g13
sg19
S'/Library/Fonts/Microsoft/Calibri Italic.ttf'
p833
sg21
g22
sbag7
(g8
g9
NtRp834
(dp835
g12
g13
sg14
S'Candara'
p836
sg16
I400
sg17
g13
sg18
g13
sg19
S'/Library/Fonts/Microsoft/Candara.ttf'
p837
sg21
g22
sbag7
(g8
g9
NtRp838
(dp839
g12
g13
sg14
S'MingLiU'
p840
sg16
I400
sg17
g13
sg18
g13
sg19
S'/Library/Fonts/Microsoft/MingLiU.ttf'
p841
sg21
g22
sbag7
(g8
g9
NtRp842
(dp843
g12
g13
sg14
S'Gulim'
p844
sg16
I400
sg17
g13
sg18
g13
sg19
S'/Library/Fonts/Microsoft/Gulim.ttf'
p845
sg21
g22
sbag7
(g8
g9
NtRp846
(dp847
g12
g13
sg14
S'Lao Sangam MN'
p848
sg16
I400
sg17
g13
sg18
g13
sg19
S'/Library/Fonts/Lao Sangam MN.ttf'
p849
sg21
g22
sbag7
(g8
g9
NtRp850
(dp851
g12
g13
sg14
S'KufiStandardGK'
p852
sg16
I400
sg17
g13
sg18
g13
sg19
S'/Library/Fonts/KufiStandardGK.ttf'
p853
sg21
g22
sbag7
(g8
g9
NtRp854
(dp855
g12
g13
sg14
S'Hei'
p856
sg16
I400
sg17
g13
sg18
g13
sg19
S'/Library/Fonts/Hei.ttf'
p857
sg21
g22
sbag7
(g8
g9
NtRp858
(dp859
g12
g58
sg14
S'Cambria'
p860
sg16
I700
sg17
g13
sg18
g13
sg19
S'/Library/Fonts/Microsoft/Cambria Bold Italic.ttf'
p861
sg21
g22
sbag7
(g8
g9
NtRp862
(dp863
g12
g13
sg14
S'Gabriola'
p864
sg16
I400
sg17
g13
sg18
g13
sg19
S'/Library/Fonts/Microsoft/Gabriola.ttf'
p865
sg21
g22
sbag7
(g8
g9
NtRp866
(dp867
g12
g13
sg14
S'Hiragino Mincho ProN'
p868
sg16
I400
sg17
g13
sg18
g13
sg19
S'/System/Library/Fonts/\xe3\x83\x92\xe3\x83\xa9\xe3\x82\xad\xe3\x82\x99\xe3\x83\x8e\xe6\x98\x8e\xe6\x9c\x9d ProN W3.otf'
p869
sg21
g22
sbag7
(g8
g9
NtRp870
(dp871
g12
g58
sg14
S'Adobe Caslon Pro'
p872
sg16
I700
sg17
g13
sg18
g13
sg19
S'/Library/Fonts/ACaslonPro-BoldItalic.otf'
p873
sg21
g22
sbag7
(g8
g9
NtRp874
(dp875
g12
g58
sg14
S'Adobe Caslon Pro'
p876
sg16
I700
sg17
g13
sg18
g13
sg19
S'/Library/Fonts/ACaslonPro-SemiboldItalic.otf'
p877
sg21
g22
sbag7
(g8
g9
NtRp878
(dp879
g12
g13
sg14
S'Adobe Naskh'
p880
sg16
I500
sg17
g13
sg18
g13
sg19
S'/Library/Fonts/AdobeNaskh-Medium.otf'
p881
sg21
g22
sbag7
(g8
g9
NtRp882
(dp883
g12
g13
sg14
S'OCR A Std'
p884
sg16
I400
sg17
g13
sg18
g13
sg19
S'/Library/Fonts/OCRAStd.otf'
p885
sg21
g22
sbag7
(g8
g9
NtRp886
(dp887
g12
g13
sg14
S'STIXSizeThreeSym'
p888
sg16
I400
sg17
g13
sg18
g13
sg19
S'/Library/Fonts/STIXSizThreeSymReg.otf'
p889
sg21
g22
sbag7
(g8
g9
NtRp890
(dp891
g12
g13
sg14
S'DIN Condensed'
p892
sg16
I700
sg17
g168
sg18
g13
sg19
S'/Library/Fonts/DIN Condensed Bold.ttf'
p893
sg21
g22
sbag7
(g8
g9
NtRp894
(dp895
g12
g13
sg14
S'Microsoft Himalaya'
p896
sg16
I400
sg17
g13
sg18
g13
sg19
S'/Library/Fonts/Microsoft/himalaya.ttf'
p897
sg21
g22
sbag7
(g8
g9
NtRp898
(dp899
g12
g13
sg14
S'AppleGothic'
p900
sg16
I400
sg17
g13
sg18
g13
sg19
S'/Library/Fonts/AppleGothic.ttf'
p901
sg21
g22
sbag7
(g8
g9
NtRp902
(dp903
g12
g13
sg14
S'Arial Narrow'
p904
sg16
I400
sg17
g168
sg18
g13
sg19
S'/Library/Fonts/Arial Narrow.ttf'
p905
sg21
g22
sbag7
(g8
g9
NtRp906
(dp907
g12
g13
sg14
S'Apple SD Gothic Neo'
p908
sg16
I700
sg17
g13
sg18
g13
sg19
S'/System/Library/Fonts/AppleSDGothicNeo-Bold.otf'
p909
sg21
g22
sbag7
(g8
g9
NtRp910
(dp911
g12
g49
sg14
S'Mshtakan'
p912
sg16
I400
sg17
g13
sg18
g13
sg19
S'/Library/Fonts/MshtakanOblique.ttf'
p913
sg21
g22
sbag7
(g8
g9
NtRp914
(dp915
g12
g58
sg14
S'Times New Roman'
p916
sg16
I500
sg17
g13
sg18
g13
sg19
S'/Library/Fonts/Microsoft/Times New Roman Italic.ttf'
p917
sg21
g22
sbag7
(g8
g9
NtRp918
(dp919
g12
g13
sg14
S'Times New Roman'
p920
sg16
I500
sg17
g13
sg18
g13
sg19
S'/Library/Fonts/Microsoft/Times New Roman.ttf'
p921
sg21
g22
sbag7
(g8
g9
NtRp922
(dp923
g12
g13
sg14
S'PMingLiU-ExtB'
p924
sg16
I400
sg17
g13
sg18
g13
sg19
S'/Library/Fonts/Microsoft/PMingLiU-ExtB.ttf'
p925
sg21
g22
sbag7
(g8
g9
NtRp926
(dp927
g12
g13
sg14
S'Myanmar Sangam MN'
p928
sg16
I400
sg17
g13
sg18
g13
sg19
S'/Library/Fonts/Myanmar Sangam MN.ttf'
p929
sg21
g22
sbag7
(g8
g9
NtRp930
(dp931
g12
g13
sg14
S'Arial Narrow'
p932
sg16
I700
sg17
g168
sg18
g13
sg19
S'/Library/Fonts/Arial Narrow Bold.ttf'
p933
sg21
g22
sbag7
(g8
g9
NtRp934
(dp935
g12
g13
sg14
S'Georgia'
p936
sg16
I400
sg17
g13
sg18
g13
sg19
S'/Library/Fonts/Georgia.ttf'
p937
sg21
g22
sbag7
(g8
g9
NtRp938
(dp939
g12
g58
sg14
S'Nueva Std'
p940
sg16
I700
sg17
g168
sg18
g13
sg19
S'/Library/Fonts/NuevaStd-BoldCondItalic.otf'
p941
sg21
g22
sbag7
(g8
g9
NtRp942
(dp943
g12
g13
sg14
S'Charlemagne Std'
p944
sg16
I700
sg17
g13
sg18
g13
sg19
S'/Library/Fonts/CharlemagneStd-Bold.otf'
p945
sg21
g22
sbag7
(g8
g9
NtRp946
(dp947
g12
g13
sg14
S'Prestige Elite Std'
p948
sg16
I700
sg17
g13
sg18
g13
sg19
S'/Library/Fonts/PrestigeEliteStd-Bd.otf'
p949
sg21
g22
sbag7
(g8
g9
NtRp950
(dp951
g12
g13
sg14
S'Constantia'
p952
sg16
I700
sg17
g13
sg18
g13
sg19
S'/Library/Fonts/Microsoft/Constantia Bold.ttf'
p953
sg21
g22
sbag7
(g8
g9
NtRp954
(dp955
g12
g13
sg14
S'Minion Pro'
p956
sg16
I400
sg17
g13
sg18
g13
sg19
S'/Library/Fonts/MinionPro-Regular.otf'
p957
sg21
g22
sbag7
(g8
g9
NtRp958
(dp959
g12
g58
sg14
S'Arial Narrow'
p960
sg16
I400
sg17
g168
sg18
g13
sg19
S'/Library/Fonts/Arial Narrow Italic.ttf'
p961
sg21
g22
sbag7
(g8
g9
NtRp962
(dp963
g12
g13
sg14
S'LiHei Pro'
p964
sg16
I400
sg17
g13
sg18
g13
sg19
S'/Library/Fonts/\xe5\x84\xb7\xe9\xbb\x91 Pro.ttf'
p965
sg21
g22
sbag7
(g8
g9
NtRp966
(dp967
g12
g13
sg14
S'Apple SD Gothic Neo'
p968
sg16
I400
sg17
g13
sg18
g13
sg19
S'/System/Library/Fonts/AppleSDGothicNeo-Regular.otf'
p969
sg21
g22
sbag7
(g8
g9
NtRp970
(dp971
g12
g13
sg14
S'Arial'
p972
sg16
I700
sg17
g13
sg18
g13
sg19
S'/Library/Fonts/Microsoft/Arial Bold.ttf'
p973
sg21
g22
sbag7
(g8
g9
NtRp974
(dp975
g12
g13
sg14
S'Tw Cen MT'
p976
sg16
I700
sg17
g13
sg18
g13
sg19
S'/Library/Fonts/Microsoft/Tw Cen MT Bold.ttf'
p977
sg21
g22
sbag7
(g8
g9
NtRp978
(dp979
g12
g13
sg14
S'Plantagenet Cherokee'
p980
sg16
I400
sg17
g13
sg18
g13
sg19
S'/Library/Fonts/PlantagenetCherokee.ttf'
p981
sg21
g22
sbag7
(g8
g9
NtRp982
(dp983
g12
g13
sg14
S'BiauKai'
p984
sg16
I400
sg17
g13
sg18
g13
sg19
S'/Library/Fonts/BiauKai.ttf'
p985
sg21
g22
sbag7
(g8
g9
NtRp986
(dp987
g12
g58
sg14
S'Brush Script MT'
p988
sg16
I400
sg17
g13
sg18
g13
sg19
S'/Library/Fonts/Microsoft/Brush Script.ttf'
p989
sg21
g22
sbag7
(g8
g9
NtRp990
(dp991
g12
g58
sg14
S'Tw Cen MT'
p992
sg16
I700
sg17
g13
sg18
g13
sg19
S'/Library/Fonts/Microsoft/Tw Cen MT Bold Italic.ttf'
p993
sg21
g22
sbag7
(g8
g9
NtRp994
(dp995
g12
g13
sg14
S'STIXVariants'
p996
sg16
I400
sg17
g13
sg18
g13
sg19
S'/Library/Fonts/STIXVar.otf'
p997
sg21
g22
sbag7
(g8
g9
NtRp998
(dp999
g12
g58
sg14
S'Candara'
p1000
sg16
I700
sg17
g13
sg18
g13
sg19
S'/Library/Fonts/Microsoft/Candara Bold Italic.ttf'
p1001
sg21
g22
sbag7
(g8
g9
NtRp1002
(dp1003
g12
g13
sg14
S'Hiragino Kaku Gothic ProN'
p1004
sg16
I700
sg17
g13
sg18
g13
sg19
S'/System/Library/Fonts/\xe3\x83\x92\xe3\x83\xa9\xe3\x82\xad\xe3\x82\x99\xe3\x83\x8e\xe8\xa7\x92\xe3\x82\xb3\xe3\x82\x99 ProN W6.otf'
p1005
sg21
g22
sbag7
(g8
g9
NtRp1006
(dp1007
g12
g13
sg14
S'Lithos Pro'
p1008
sg16
I900
sg17
g13
sg18
g13
sg19
S'/Library/Fonts/LithosPro-Black.otf'
p1009
sg21
g22
sbag7
(g8
g9
NtRp1010
(dp1011
g12
g13
sg14
S'Birch Std'
p1012
sg16
I400
sg17
g13
sg18
g13
sg19
S'/Library/Fonts/BirchStd.otf'
p1013
sg21
g22
sbag7
(g8
g9
NtRp1014
(dp1015
g12
g13
sg14
S'Cambria Math'
p1016
sg16
I400
sg17
g13
sg18
g13
sg19
S'/Library/Fonts/Microsoft/Cambria Math.ttf'
p1017
sg21
g22
sbag7
(g8
g9
NtRp1018
(dp1019
g12
g13
sg14
S'Skia'
p1020
sg16
I400
sg17
g13
sg18
g13
sg19
S'/Library/Fonts/Skia.ttf'
p1021
sg21
g22
sbag7
(g8
g9
NtRp1022
(dp1023
g12
g13
sg14
S'Kozuka Gothic Pr6N'
p1024
sg16
I700
sg17
g13
sg18
g13
sg19
S'/Library/Fonts/KozGoPr6N-Bold.otf'
p1025
sg21
g22
sbag7
(g8
g9
NtRp1026
(dp1027
g12
g13
sg14
S'Adobe Arabic'
p1028
sg16
I400
sg17
g13
sg18
g13
sg19
S'/Library/Fonts/AdobeArabic-Regular.otf'
p1029
sg21
g22
sbag7
(g8
g9
NtRp1030
(dp1031
g12
g13
sg14
S'Kozuka Mincho Pro'
p1032
sg16
I700
sg17
g13
sg18
g13
sg19
S'/Library/Fonts/KozMinPro-Heavy.otf'
p1033
sg21
g22
sbag7
(g8
g9
NtRp1034
(dp1035
g12
g13
sg14
S'YuMincho'
p1036
sg16
I700
sg17
g13
sg18
g13
sg19
S'/Library/Fonts/Yu Mincho Demibold.otf'
p1037
sg21
g22
sbag7
(g8
g9
NtRp1038
(dp1039
g12
g13
sg14
S'STFangsong'
p1040
sg16
I400
sg17
g13
sg18
g13
sg19
S'/Library/Fonts/\xe5\x8d\x8e\xe6\x96\x87\xe4\xbb\xbf\xe5\xae\x8b.ttf'
p1041
sg21
g22
sbag7
(g8
g9
NtRp1042
(dp1043
g12
g13
sg14
S'Lucida Console'
p1044
sg16
I400
sg17
g13
sg18
g13
sg19
S'/Library/Fonts/Microsoft/Lucida Console.ttf'
p1045
sg21
g22
sbag7
(g8
g9
NtRp1046
(dp1047
g12
g13
sg14
S'Lithos Pro'
p1048
sg16
I400
sg17
g13
sg18
g13
sg19
S'/Library/Fonts/LithosPro-Regular.otf'
p1049
sg21
g22
sbag7
(g8
g9
NtRp1050
(dp1051
g12
g13
sg14
S'Trajan Pro'
p1052
sg16
I400
sg17
g13
sg18
g13
sg19
S'/Library/Fonts/TrajanPro-Regular.otf'
p1053
sg21
g22
sbag7
(g8
g9
NtRp1054
(dp1055
g12
g13
sg14
S'Kozuka Mincho Pro'
p1056
sg16
I700
sg17
g13
sg18
g13
sg19
S'/Library/Fonts/KozMinPro-Bold.otf'
p1057
sg21
g22
sbag7
(g8
g9
NtRp1058
(dp1059
g12
g13
sg14
S'Perpetua'
p1060
sg16
I400
sg17
g13
sg18
g13
sg19
S'/Library/Fonts/Microsoft/Perpetua.ttf'
p1061
sg21
g22
sbag7
(g8
g9
NtRp1062
(dp1063
g12
g13
sg14
S'Nueva Std'
p1064
sg16
I700
sg17
g168
sg18
g13
sg19
S'/Library/Fonts/NuevaStd-BoldCond.otf'
p1065
sg21
g22
sbag7
(g8
g9
NtRp1066
(dp1067
g12
g13
sg14
S'Cambria'
p1068
sg16
I700
sg17
g13
sg18
g13
sg19
S'/Library/Fonts/Microsoft/Cambria Bold.ttf'
p1069
sg21
g22
sbag7
(g8
g9
NtRp1070
(dp1071
g12
g58
sg14
S'Courier New'
p1072
sg16
I700
sg17
g13
sg18
g13
sg19
S'/Library/Fonts/Courier New Bold Italic.ttf'
p1073
sg21
g22
sbag7
(g8
g9
NtRp1074
(dp1075
g12
g13
sg14
S'Arial Rounded MT Bold'
p1076
sg16
I700
sg17
g13
sg18
g13
sg19
S'/Library/Fonts/Arial Rounded Bold.ttf'
p1077
sg21
g22
sbag7
(g8
g9
NtRp1078
(dp1079
g12
g13
sg14
S'Devanagari MT'
p1080
sg16
I700
sg17
g13
sg18
g13
sg19
S'/Library/Fonts/DevanagariMTBold.ttf'
p1081
sg21
g22
sbag7
(g8
g9
NtRp1082
(dp1083
g12
g13
sg14
S'Trajan Pro'
p1084
sg16
I700
sg17
g13
sg18
g13
sg19
S'/Library/Fonts/TrajanPro-Bold.otf'
p1085
sg21
g22
sbag7
(g8
g9
NtRp1086
(dp1087
g12
g58
sg14
S'Adobe Arabic'
p1088
sg16
I700
sg17
g13
sg18
g13
sg19
S'/Library/Fonts/AdobeArabic-BoldItalic.otf'
p1089
sg21
g22
sbag7
(g8
g9
NtRp1090
(dp1091
g12
g13
sg14
S'Kozuka Gothic Pr6N'
p1092
sg16
I400
sg17
g13
sg18
g13
sg19
S'/Library/Fonts/KozGoPr6N-Light.otf'
p1093
sg21
g22
sbag7
(g8
g9
NtRp1094
(dp1095
g12
g13
sg14
S'MingLiU-ExtB'
p1096
sg16
I400
sg17
g13
sg18
g13
sg19
S'/Library/Fonts/Microsoft/MingLiU-ExtB.ttf'
p1097
sg21
g22
sbag7
(g8
g9
NtRp1098
(dp1099
g12
g58
sg14
S'Franklin Gothic Medium'
p1100
sg16
I500
sg17
g13
sg18
g13
sg19
S'/Library/Fonts/Microsoft/Franklin Gothic Medium Italic.ttf'
p1101
sg21
g22
sbag7
(g8
g9
NtRp1102
(dp1103
g12
g13
sg14
S'Kozuka Mincho Pro'
p1104
sg16
I400
sg17
g13
sg18
g13
sg19
S'/Library/Fonts/KozMinPro-Medium.otf'
p1105
sg21
g22
sbag7
(g8
g9
NtRp1106
(dp1107
g12
g58
sg14
S'Constantia'
p1108
sg16
I400
sg17
g13
sg18
g13
sg19
S'/Library/Fonts/Microsoft/Constantia Italic.ttf'
p1109
sg21
g22
sbag7
(g8
g9
NtRp1110
(dp1111
g12
g13
sg14
S'InaiMathi'
p1112
sg16
I400
sg17
g13
sg18
g13
sg19
S'/Library/Fonts/InaiMathi.ttf'
p1113
sg21
g22
sbag7
(g8
g9
NtRp1114
(dp1115
g12
g13
sg14
S'Cambria'
p1116
sg16
I400
sg17
g13
sg18
g13
sg19
S'/Library/Fonts/Microsoft/Cambria.ttf'
p1117
sg21
g22
sbag7
(g8
g9
NtRp1118
(dp1119
g12
g13
sg14
S'Perpetua'
p1120
sg16
I700
sg17
g13
sg18
g13
sg19
S'/Library/Fonts/Microsoft/Perpetua Bold.ttf'
p1121
sg21
g22
sbag7
(g8
g9
NtRp1122
(dp1123
g12
g13
sg14
S'Batang'
p1124
sg16
I400
sg17
g13
sg18
g13
sg19
S'/Library/Fonts/Microsoft/Batang.ttf'
p1125
sg21
g22
sbag7
(g8
g9
NtRp1126
(dp1127
g12
g13
sg14
S'Kozuka Gothic Pro'
p1128
sg16
I400
sg17
g13
sg18
g13
sg19
S'/Library/Fonts/KozGoPro-Light.otf'
p1129
sg21
g22
sbag7
(g8
g9
NtRp1130
(dp1131
g12
g13
sg14
S'Minion Pro'
p1132
sg16
I700
sg17
g13
sg18
g13
sg19
S'/Library/Fonts/MinionPro-Semibold.otf'
p1133
sg21
g22
sbag7
(g8
g9
NtRp1134
(dp1135
g12
g58
sg14
S'Letter Gothic Std'
p1136
sg16
I400
sg17
g13
sg18
g13
sg19
S'/Library/Fonts/LetterGothicStd-Slanted.otf'
p1137
sg21
g22
sbag7
(g8
g9
NtRp1138
(dp1139
g12
g13
sg14
S'DecoType Naskh'
p1140
sg16
I400
sg17
g13
sg18
g13
sg19
S'/Library/Fonts/DecoTypeNaskh.ttf'
p1141
sg21
g22
sbag7
(g8
g9
NtRp1142
(dp1143
g12
g58
sg14
S'Myriad Pro'
p1144
sg16
I700
sg17
g13
sg18
g13
sg19
S'/Library/Fonts/MyriadPro-BoldIt.otf'
p1145
sg21
g22
sbag7
(g8
g9
NtRp1146
(dp1147
g12
g13
sg14
S'HeadLineA'
p1148
sg16
I400
sg17
g13
sg18
g13
sg19
S'/Library/Fonts/HeadlineA.ttf'
p1149
sg21
g22
sbag7
(g8
g9
NtRp1150
(dp1151
g12
g13
sg14
S'.Keyboard'
p1152
sg16
I400
sg17
g13
sg18
g13
sg19
S'/System/Library/Fonts/Keyboard.ttf'
p1153
sg21
g22
sbag7
(g8
g9
NtRp1154
(dp1155
g12
g13
sg14
S'Hiragino Kaku Gothic Std'
p1156
sg16
I700
sg17
g13
sg18
g13
sg19
S'/Library/Fonts/\xe3\x83\x92\xe3\x83\xa9\xe3\x82\xad\xe3\x82\x99\xe3\x83\x8e\xe8\xa7\x92\xe3\x82\xb3\xe3\x82\x99 Std W8.otf'
p1157
sg21
g22
sbag7
(g8
g9
NtRp1158
(dp1159
g12
g13
sg14
S'Lucida Sans Unicode'
p1160
sg16
I400
sg17
g13
sg18
g13
sg19
S'/Library/Fonts/Microsoft/Lucida Sans Unicode.ttf'
p1161
sg21
g22
sbag7
(g8
g9
NtRp1162
(dp1163
g12
g13
sg14
S'Hiragino Sans GB'
p1164
sg16
I700
sg17
g13
sg18
g13
sg19
S'/Library/Fonts/Hiragino Sans GB W6.otf'
p1165
sg21
g22
sbag7
(g8
g9
NtRp1166
(dp1167
g12
g13
sg14
S'Geeza Pro'
p1168
sg16
I400
sg17
g13
sg18
g13
sg19
S'/System/Library/Fonts/Geeza Pro.ttf'
p1169
sg21
g22
sbag7
(g8
g9
NtRp1170
(dp1171
g12
g58
sg14
S'Consolas'
p1172
sg16
I700
sg17
g13
sg18
g13
sg19
S'/Library/Fonts/Microsoft/Consolas Bold Italic.ttf'
p1173
sg21
g22
sbag7
(g8
g9
NtRp1174
(dp1175
g12
g13
sg14
S'Microsoft Sans Serif'
p1176
sg16
I400
sg17
g13
sg18
g13
sg19
S'/Library/Fonts/Microsoft Sans Serif.ttf'
p1177
sg21
g22
sbag7
(g8
g9
NtRp1178
(dp1179
g12
g13
sg14
S'STIXIntegralsUpD'
p1180
sg16
I700
sg17
g13
sg18
g13
sg19
S'/Library/Fonts/STIXIntUpDBol.otf'
p1181
sg21
g22
sbag7
(g8
g9
NtRp1182
(dp1183
g12
g13
sg14
S'Myriad Pro'
p1184
sg16
I700
sg17
g13
sg18
g13
sg19
S'/Library/Fonts/MyriadPro-Bold.otf'
p1185
sg21
g22
sbag7
(g8
g9
NtRp1186
(dp1187
g12
g13
sg14
S'STIXGeneral'
p1188
sg16
I400
sg17
g13
sg18
g13
sg19
S'/Library/Fonts/STIXGeneral.otf'
p1189
sg21
g22
sbag7
(g8
g9
NtRp1190
(dp1191
g12
g13
sg14
S'Hiragino Kaku Gothic Pro'
p1192
sg16
I400
sg17
g13
sg18
g13
sg19
S'/Library/Fonts/\xe3\x83\x92\xe3\x83\xa9\xe3\x82\xad\xe3\x82\x99\xe3\x83\x8e\xe8\xa7\x92\xe3\x82\xb3\xe3\x82\x99 Pro W3.otf'
p1193
sg21
g22
sbag7
(g8
g9
NtRp1194
(dp1195
g12
g13
sg14
S'Giddyup Std'
p1196
sg16
I400
sg17
g13
sg18
g13
sg19
S'/Library/Fonts/GiddyupStd.otf'
p1197
sg21
g22
sbag7
(g8
g9
NtRp1198
(dp1199
g12
g13
sg14
S'Yuppy TC'
p1200
sg16
I400
sg17
g13
sg18
g13
sg19
S'/Library/Fonts/YuppyTC-Regular.otf'
p1201
sg21
g22
sbag7
(g8
g9
NtRp1202
(dp1203
g12
g13
sg14
S'Apple Chancery'
p1204
sg16
I400
sg17
g13
sg18
g13
sg19
S'/Library/Fonts/Apple Chancery.ttf'
p1205
sg21
g22
sbag7
(g8
g9
NtRp1206
(dp1207
g12
g13
sg14
S'STIXIntegralsUpSm'
p1208
sg16
I700
sg17
g13
sg18
g13
sg19
S'/Library/Fonts/STIXIntUpSmBol.otf'
p1209
sg21
g22
sbag7
(g8
g9
NtRp1210
(dp1211
g12
g58
sg14
S'Myriad Hebrew'
p1212
sg16
I700
sg17
g13
sg18
g13
sg19
S'/Library/Fonts/MyriadHebrew-BoldIt.otf'
p1213
sg21
g22
sbag7
(g8
g9
NtRp1214
(dp1215
g12
g13
sg14
S'STIXSizeOneSym'
p1216
sg16
I700
sg17
g13
sg18
g13
sg19
S'/Library/Fonts/STIXSizOneSymBol.otf'
p1217
sg21
g22
sbag7
(g8
g9
NtRp1218
(dp1219
g12
g13
sg14
S'SimSun-ExtB'
p1220
sg16
I400
sg17
g13
sg18
g13
sg19
S'/Library/Fonts/Microsoft/SimSun-ExtB.ttf'
p1221
sg21
g22
sbag7
(g8
g9
NtRp1222
(dp1223
g12
g13
sg14
S'Palatino Linotype'
p1224
sg16
I400
sg17
g13
sg18
g13
sg19
S'/Library/Fonts/Microsoft/Palatino Linotype.ttf'
p1225
sg21
g22
sbag7
(g8
g9
NtRp1226
(dp1227
g12
g13
sg14
S'Adobe Hebrew'
p1228
sg16
I400
sg17
g13
sg18
g13
sg19
S'/Library/Fonts/AdobeHebrew-Regular.otf'
p1229
sg21
g22
sbag7
(g8
g9
NtRp1230
(dp1231
g12
g13
sg14
S'STIXSizeTwoSym'
p1232
sg16
I400
sg17
g13
sg18
g13
sg19
S'/Library/Fonts/STIXSizTwoSymReg.otf'
p1233
sg21
g22
sbag7
(g8
g9
NtRp1234
(dp1235
g12
g13
sg14
S'Weibei SC'
p1236
sg16
I700
sg17
g13
sg18
g13
sg19
S'/Library/Fonts/WeibeiSC-Bold.otf'
p1237
sg21
g22
sbag7
(g8
g9
NtRp1238
(dp1239
g12
g13
sg14
S'MS PGothic'
p1240
sg16
I400
sg17
g13
sg18
g13
sg19
S'/Library/Fonts/Microsoft/MS PGothic.ttf'
p1241
sg21
g22
sbag7
(g8
g9
NtRp1242
(dp1243
g12
g13
sg14
S'Microsoft Tai Le'
p1244
sg16
I700
sg17
g13
sg18
g13
sg19
S'/Library/Fonts/Microsoft/TaiLeb.ttf'
p1245
sg21
g22
sbag7
(g8
g9
NtRp1246
(dp1247
g12
g13
sg14
S'STIXIntegralsUpD'
p1248
sg16
I400
sg17
g13
sg18
g13
sg19
S'/Library/Fonts/STIXIntUpDReg.otf'
p1249
sg21
g22
sbag7
(g8
g9
NtRp1250
(dp1251
g12
g58
sg14
S'Meiryo'
p1252
sg16
I700
sg17
g13
sg18
g13
sg19
S'/Library/Fonts/Microsoft/Meiryo Bold Italic.ttf'
p1253
sg21
g22
sbag7
(g8
g9
NtRp1254
(dp1255
g12
g13
sg14
S'Kozuka Gothic Pro'
p1256
sg16
I700
sg17
g13
sg18
g13
sg19
S'/Library/Fonts/KozGoPro-Bold.otf'
p1257
sg21
g22
sbag7
(g8
g9
NtRp1258
(dp1259
g12
g58
sg14
S'Candara'
p1260
sg16
I400
sg17
g13
sg18
g13
sg19
S'/Library/Fonts/Microsoft/Candara Italic.ttf'
p1261
sg21
g22
sbag7
(g8
g9
NtRp1262
(dp1263
g12
g13
sg14
S'Kozuka Gothic Pro'
p1264
sg16
I400
sg17
g13
sg18
g13
sg19
S'/Library/Fonts/KozGoPro-Medium.otf'
p1265
sg21
g22
sbag7
(g8
g9
NtRp1266
(dp1267
g12
g13
sg14
S'Apple SD Gothic Neo'
p1268
sg16
I200
sg17
g13
sg18
g13
sg19
S'/Library/Fonts/AppleSDGothicNeo-UltraLight.otf'
p1269
sg21
g22
sbag7
(g8
g9
NtRp1270
(dp1271
g12
g13
sg14
S'Arial Unicode MS'
p1272
sg16
I400
sg17
g13
sg18
g13
sg19
S'/Library/Fonts/Arial Unicode.ttf'
p1273
sg21
g22
sbag7
(g8
g9
NtRp1274
(dp1275
g12
g13
sg14
S'Adobe Heiti Std'
p1276
sg16
I400
sg17
g13
sg18
g13
sg19
S'/Library/Fonts/AdobeHeitiStd-Regular.otf'
p1277
sg21
g22
sbag7
(g8
g9
NtRp1278
(dp1279
g12
g13
sg14
S'Kozuka Gothic Pr6N'
p1280
sg16
I700
sg17
g13
sg18
g13
sg19
S'/Library/Fonts/KozGoPr6N-Heavy.otf'
p1281
sg21
g22
sbag7
(g8
g9
NtRp1282
(dp1283
g12
g58
sg14
S'Adobe Devanagari'
p1284
sg16
I400
sg17
g13
sg18
g13
sg19
S'/Library/Fonts/AdobeDevanagari-Italic.otf'
p1285
sg21
g22
sbag7
(g8
g9
NtRp1286
(dp1287
g12
g13
sg14
S'Apple SD Gothic Neo'
p1288
sg16
I800
sg17
g13
sg18
g13
sg19
S'/Library/Fonts/AppleSDGothicNeo-Heavy.otf'
p1289
sg21
g22
sbag7
(g8
g9
NtRp1290
(dp1291
g12
g13
sg14
S'Myriad Hebrew'
p1292
sg16
I400
sg17
g13
sg18
g13
sg19
S'/Library/Fonts/MyriadHebrew-Regular.otf'
p1293
sg21
g22
sbag7
(g8
g9
NtRp1294
(dp1295
g12
g13
sg14
S'Times New Roman'
p1296
sg16
I700
sg17
g13
sg18
g13
sg19
S'/Library/Fonts/Microsoft/Times New Roman Bold.ttf'
p1297
sg21
g22
sbag7
(g8
g9
NtRp1298
(dp1299
g12
g13
sg14
S'Kozuka Mincho Pr6N'
p1300
sg16
I400
sg17
g13
sg18
g13
sg19
S'/Library/Fonts/KozMinPr6N-Regular.otf'
p1301
sg21
g22
sbag7
(g8
g9
NtRp1302
(dp1303
g12
g13
sg14
S'Adobe Fan Heiti Std'
p1304
sg16
I700
sg17
g13
sg18
g13
sg19
S'/Library/Fonts/AdobeFanHeitiStd-Bold.otf'
p1305
sg21
g22
sbag7
(g8
g9
NtRp1306
(dp1307
g12
g13
sg14
S'STIXIntegralsD'
p1308
sg16
I700
sg17
g13
sg18
g13
sg19
S'/Library/Fonts/STIXIntDBol.otf'
p1309
sg21
g22
sbag7
(g8
g9
NtRp1310
(dp1311
g12
g13
sg14
S'Chaparral Pro'
p1312
sg16
I700
sg17
g13
sg18
g13
sg19
S'/Library/Fonts/ChaparralPro-Bold.otf'
p1313
sg21
g22
sbag7
(g8
g9
NtRp1314
(dp1315
g12
g13
sg14
S'DIN Alternate'
p1316
sg16
I700
sg17
g13
sg18
g13
sg19
S'/Library/Fonts/DIN Alternate Bold.ttf'
p1317
sg21
g22
sbag7
(g8
g9
NtRp1318
(dp1319
g12
g13
sg14
S'Courier New'
p1320
sg16
I400
sg17
g13
sg18
g13
sg19
S'/Library/Fonts/Courier New.ttf'
p1321
sg21
g22
sbag7
(g8
g9
NtRp1322
(dp1323
g12
g58
sg14
S'Arial Narrow'
p1324
sg16
I700
sg17
g168
sg18
g13
sg19
S'/Library/Fonts/Arial Narrow Bold Italic.ttf'
p1325
sg21
g22
sbag7
(g8
g9
NtRp1326
(dp1327
g12
g13
sg14
S'Zapfino'
p1328
sg16
I400
sg17
g13
sg18
g13
sg19
S'/Library/Fonts/Zapfino.ttf'
p1329
sg21
g22
sbag7
(g8
g9
NtRp1330
(dp1331
g12
g13
sg14
S'Krungthep'
p1332
sg16
I400
sg17
g13
sg18
g13
sg19
S'/Library/Fonts/Krungthep.ttf'
p1333
sg21
g22
sbag7
(g8
g9
NtRp1334
(dp1335
g12
g13
sg14
S'Apple SD Gothic Neo'
p1336
sg16
I700
sg17
g13
sg18
g13
sg19
S'/Library/Fonts/AppleSDGothicNeo-ExtraBold.otf'
p1337
sg21
g22
sbag7
(g8
g9
NtRp1338
(dp1339
g12
g13
sg14
S'Mongolian Baiti'
p1340
sg16
I400
sg17
g13
sg18
g13
sg19
S'/Library/Fonts/Microsoft/monbaiti.ttf'
p1341
sg21
g22
sbag7
(g8
g9
NtRp1342
(dp1343
g12
g13
sg14
S'Franklin Gothic Medium'
p1344
sg16
I500
sg17
g13
sg18
g13
sg19
S'/Library/Fonts/Microsoft/Franklin Gothic Medium.ttf'
p1345
sg21
g22
sbag7
(g8
g9
NtRp1346
(dp1347
g12
g13
sg14
S'Myriad Hebrew'
p1348
sg16
I700
sg17
g13
sg18
g13
sg19
S'/Library/Fonts/MyriadHebrew-Bold.otf'
p1349
sg21
g22
sbag7
(g8
g9
NtRp1350
(dp1351
g12
g58
sg14
S'Cooper Std'
p1352
sg16
I900
sg17
g13
sg18
g13
sg19
S'/Library/Fonts/CooperBlackStd-Italic.otf'
p1353
sg21
g22
sbag7
(g8
g9
NtRp1354
(dp1355
g12
g13
sg14
S'Minion Pro'
p1356
sg16
I700
sg17
g168
sg18
g13
sg19
S'/Library/Fonts/MinionPro-BoldCn.otf'
p1357
sg21
g22
sbag7
(g8
g9
NtRp1358
(dp1359
g12
g13
sg14
S'Hiragino Kaku Gothic ProN'
p1360
sg16
I400
sg17
g13
sg18
g13
sg19
S'/System/Library/Fonts/\xe3\x83\x92\xe3\x83\xa9\xe3\x82\xad\xe3\x82\x99\xe3\x83\x8e\xe8\xa7\x92\xe3\x82\xb3\xe3\x82\x99 ProN W3.otf'
p1361
sg21
g22
sbag7
(g8
g9
NtRp1362
(dp1363
g12
g13
sg14
S'STHeiti'
p1364
sg16
I400
sg17
g13
sg18
g13
sg19
S'/Library/Fonts/\xe5\x8d\x8e\xe6\x96\x87\xe9\xbb\x91\xe4\xbd\x93.ttf'
p1365
sg21
g22
sbag7
(g8
g9
NtRp1366
(dp1367
g12
g13
sg14
S'Apple Braille'
p1368
sg16
I400
sg17
g13
sg18
g13
sg19
S'/System/Library/Fonts/Apple Braille Outline 8 Dot.ttf'
p1369
sg21
g22
sbag7
(g8
g9
NtRp1370
(dp1371
g12
g13
sg14
S'Kozuka Mincho Pro'
p1372
sg16
I400
sg17
g13
sg18
g13
sg19
S'/Library/Fonts/KozMinPro-Light.otf'
p1373
sg21
g22
sbag7
(g8
g9
NtRp1374
(dp1375
g12
g58
sg14
S'Corbel'
p1376
sg16
I400
sg17
g13
sg18
g13
sg19
S'/Library/Fonts/Microsoft/Corbel Italic.ttf'
p1377
sg21
g22
sbag7
(g8
g9
NtRp1378
(dp1379
g12
g13
sg14
S'Palatino Linotype'
p1380
sg16
I700
sg17
g13
sg18
g13
sg19
S'/Library/Fonts/Microsoft/Palatino Linotype Bold.ttf'
p1381
sg21
g22
sbag7
(g8
g9
NtRp1382
(dp1383
g12
g58
sg14
S'Adobe Garamond Pro'
p1384
sg16
I400
sg17
g13
sg18
g13
sg19
S'/Library/Fonts/AGaramondPro-Italic.otf'
p1385
sg21
g22
sbag7
(g8
g9
NtRp1386
(dp1387
g12
g13
sg14
S'STIXVariants'
p1388
sg16
I700
sg17
g13
sg18
g13
sg19
S'/Library/Fonts/STIXVarBol.otf'
p1389
sg21
g22
sbag7
(g8
g9
NtRp1390
(dp1391
g12
g13
sg14
S'Hiragino Kaku Gothic StdN'
p1392
sg16
I700
sg17
g13
sg18
g13
sg19
S'/Library/Fonts/\xe3\x83\x92\xe3\x83\xa9\xe3\x82\xad\xe3\x82\x99\xe3\x83\x8e\xe8\xa7\x92\xe3\x82\xb3\xe3\x82\x99 StdN W8.otf'
p1393
sg21
g22
sbag7
(g8
g9
NtRp1394
(dp1395
g12
g13
sg14
S'MS Gothic'
p1396
sg16
I400
sg17
g13
sg18
g13
sg19
S'/Library/Fonts/Microsoft/MS Gothic.ttf'
p1397
sg21
g22
sbag7
(g8
g9
NtRp1398
(dp1399
g12
g13
sg14
S'MS PMincho'
p1400
sg16
I400
sg17
g13
sg18
g13
sg19
S'/Library/Fonts/Microsoft/MS PMincho.ttf'
p1401
sg21
g22
sbag7
(g8
g9
NtRp1402
(dp1403
g12
g13
sg14
S'STIXIntegralsUp'
p1404
sg16
I700
sg17
g13
sg18
g13
sg19
S'/Library/Fonts/STIXIntUpBol.otf'
p1405
sg21
g22
sbag7
(g8
g9
NtRp1406
(dp1407
g12
g13
sg14
S'Wawati TC'
p1408
sg16
I400
sg17
g13
sg18
g13
sg19
S'/Library/Fonts/WawaTC-Regular.otf'
p1409
sg21
g22
sbag7
(g8
g9
NtRp1410
(dp1411
g12
g13
sg14
S'MS Reference Sans Serif'
p1412
sg16
I400
sg17
g13
sg18
g13
sg19
S'/Library/Fonts/Microsoft/MS Reference Sans Serif.ttf'
p1413
sg21
g22
sbag7
(g8
g9
NtRp1414
(dp1415
g12
g13
sg14
S'STIXSizeTwoSym'
p1416
sg16
I700
sg17
g13
sg18
g13
sg19
S'/Library/Fonts/STIXSizTwoSymBol.otf'
p1417
sg21
g22
sbag7
(g8
g9
NtRp1418
(dp1419
g12
g13
sg14
S'Hiragino Mincho Pro'
p1420
sg16
I400
sg17
g13
sg18
g13
sg19
S'/Library/Fonts/\xe3\x83\x92\xe3\x83\xa9\xe3\x82\xad\xe3\x82\x99\xe3\x83\x8e\xe6\x98\x8e\xe6\x9c\x9d Pro W3.otf'
p1421
sg21
g22
sbag7
(g8
g9
NtRp1422
(dp1423
g12
g13
sg14
S'Corbel'
p1424
sg16
I400
sg17
g13
sg18
g13
sg19
S'/Library/Fonts/Microsoft/Corbel.ttf'
p1425
sg21
g22
sbag7
(g8
g9
NtRp1426
(dp1427
g12
g13
sg14
S'Adobe Caslon Pro'
p1428
sg16
I700
sg17
g13
sg18
g13
sg19
S'/Library/Fonts/ACaslonPro-Semibold.otf'
p1429
sg21
g22
sbag7
(g8
g9
NtRp1430
(dp1431
g12
g13
sg14
S'SimSun'
p1432
sg16
I400
sg17
g13
sg18
g13
sg19
S'/Library/Fonts/Microsoft/SimSun.ttf'
p1433
sg21
g22
sbag7
(g8
g9
NtRp1434
(dp1435
g12
g13
sg14
S'Apple Braille'
p1436
sg16
I400
sg17
g13
sg18
g13
sg19
S'/System/Library/Fonts/Apple Braille Pinpoint 8 Dot.ttf'
p1437
sg21
g22
sbag7
(g8
g9
NtRp1438
(dp1439
g12
g58
sg14
S'Georgia'
p1440
sg16
I400
sg17
g13
sg18
g13
sg19
S'/Library/Fonts/Georgia Italic.ttf'
p1441
sg21
g22
sbag7
(g8
g9
NtRp1442
(dp1443
g12
g13
sg14
S'Apple Braille'
p1444
sg16
I400
sg17
g13
sg18
g13
sg19
S'/System/Library/Fonts/Apple Braille Outline 6 Dot.ttf'
p1445
sg21
g22
sbag7
(g8
g9
NtRp1446
(dp1447
g12
g13
sg14
S'Adobe Hebrew'
p1448
sg16
I700
sg17
g13
sg18
g13
sg19
S'/Library/Fonts/AdobeHebrew-Bold.otf'
p1449
sg21
g22
sbag7
(g8
g9
NtRp1450
(dp1451
g12
g58
sg14
S'Gill Sans MT'
p1452
sg16
I700
sg17
g13
sg18
g13
sg19
S'/Library/Fonts/Microsoft/Gill Sans MT Bold Italic.ttf'
p1453
sg21
g22
sbag7
(g8
g9
NtRp1454
(dp1455
g12
g13
sg14
S'Adobe Garamond Pro'
p1456
sg16
I400
sg17
g13
sg18
g13
sg19
S'/Library/Fonts/AGaramondPro-Regular.otf'
p1457
sg21
g22
sbag7
(g8
g9
NtRp1458
(dp1459
g12
g13
sg14
S'Myriad Arabic'
p1460
sg16
I700
sg17
g13
sg18
g13
sg19
S'/Library/Fonts/MyriadArabic-Bold.otf'
p1461
sg21
g22
sbag7
(g8
g9
NtRp1462
(dp1463
g12
g13
sg14
S'Chaparral Pro'
p1464
sg16
I400
sg17
g13
sg18
g13
sg19
S'/Library/Fonts/ChaparralPro-Regular.otf'
p1465
sg21
g22
sbag7
(g8
g9
NtRp1466
(dp1467
g12
g13
sg14
S'LastResort'
p1468
sg16
I400
sg17
g13
sg18
g13
sg19
S'/System/Library/Fonts/LastResort.ttf'
p1469
sg21
g22
sbag7
(g8
g9
NtRp1470
(dp1471
g12
g13
sg14
S'Apple SD Gothic Neo'
p1472
sg16
I400
sg17
g13
sg18
g13
sg19
S'/Library/Fonts/AppleSDGothicNeo-Thin.otf'
p1473
sg21
g22
sbag7
(g8
g9
NtRp1474
(dp1475
g12
g13
sg14
S'Geeza Pro'
p1476
sg16
I700
sg17
g13
sg18
g13
sg19
S'/System/Library/Fonts/Geeza Pro Bold.ttf'
p1477
sg21
g22
sbag7
(g8
g9
NtRp1478
(dp1479
g12
g13
sg14
S'STIXGeneral'
p1480
sg16
I700
sg17
g13
sg18
g13
sg19
S'/Library/Fonts/STIXGeneralBol.otf'
p1481
sg21
g22
sbag7
(g8
g9
NtRp1482
(dp1483
g12
g58
sg14
S'Constantia'
p1484
sg16
I700
sg17
g13
sg18
g13
sg19
S'/Library/Fonts/Microsoft/Constantia Bold Italic.ttf'
p1485
sg21
g22
sbag7
(g8
g9
NtRp1486
(dp1487
g12
g13
sg14
S'Franklin Gothic Book'
p1488
sg16
I400
sg17
g13
sg18
g13
sg19
S'/Library/Fonts/Microsoft/Franklin Gothic Book.ttf'
p1489
sg21
g22
sbag7
(g8
g9
NtRp1490
(dp1491
g12
g13
sg14
S'Osaka'
p1492
sg16
I400
sg17
g13
sg18
g13
sg19
S'/Library/Fonts/OsakaMono.ttf'
p1493
sg21
g22
sbag7
(g8
g9
NtRp1494
(dp1495
g12
g13
sg14
S'Kozuka Mincho Pr6N'
p1496
sg16
I400
sg17
g13
sg18
g13
sg19
S'/Library/Fonts/KozMinPr6N-ExtraLight.otf'
p1497
sg21
g22
sbag7
(g8
g9
NtRp1498
(dp1499
g12
g58
sg14
S'STIXGeneral'
p1500
sg16
I700
sg17
g13
sg18
g13
sg19
S'/Library/Fonts/STIXGeneralBolIta.otf'
p1501
sg21
g22
sbag7
(g8
g9
NtRp1502
(dp1503
g12
g13
sg14
S'Trebuchet MS'
p1504
sg16
I400
sg17
g13
sg18
g13
sg19
S'/Library/Fonts/Trebuchet MS.ttf'
p1505
sg21
g22
sbag7
(g8
g9
NtRp1506
(dp1507
g12
g13
sg14
S'Courier New'
p1508
sg16
I700
sg17
g13
sg18
g13
sg19
S'/Library/Fonts/Courier New Bold.ttf'
p1509
sg21
g22
sbag7
(g8
g9
NtRp1510
(dp1511
g12
g13
sg14
S'Adobe Fangsong Std'
p1512
sg16
I400
sg17
g13
sg18
g13
sg19
S'/Library/Fonts/AdobeFangsongStd-Regular.otf'
p1513
sg21
g22
sbag7
(g8
g9
NtRp1514
(dp1515
g12
g13
sg14
S'Herculanum'
p1516
sg16
I400
sg17
g13
sg18
g13
sg19
S'/Library/Fonts/Herculanum.ttf'
p1517
sg21
g22
sbag7
(g8
g9
NtRp1518
(dp1519
g12
g13
sg14
S'Wingdings'
p1520
sg16
I400
sg17
g13
sg18
g13
sg19
S'/Library/Fonts/Microsoft/Wingdings.ttf'
p1521
sg21
g22
sbag7
(g8
g9
NtRp1522
(dp1523
g12
g58
sg14
S'Minion Pro'
p1524
sg16
I700
sg17
g13
sg18
g13
sg19
S'/Library/Fonts/MinionPro-SemiboldIt.otf'
p1525
sg21
g22
sbag7
(g8
g9
NtRp1526
(dp1527
g12
g13
sg14
S'Adobe Devanagari'
p1528
sg16
I400
sg17
g13
sg18
g13
sg19
S'/Library/Fonts/AdobeDevanagari-Regular.otf'
p1529
sg21
g22
sbag7
(g8
g9
NtRp1530
(dp1531
g12
g13
sg14
S'MS Reference Specialty'
p1532
sg16
I400
sg17
g13
sg18
g13
sg19
S'/Library/Fonts/Microsoft/MS Reference Specialty.ttf'
p1533
sg21
g22
sbag7
(g8
g9
NtRp1534
(dp1535
g12
g13
sg14
S'Tahoma'
p1536
sg16
I400
sg17
g13
sg18
g13
sg19
S'/Library/Fonts/Tahoma.ttf'
p1537
sg21
g22
sbag7
(g8
g9
NtRp1538
(dp1539
g12
g13
sg14
S'Gill Sans MT'
p1540
sg16
I700
sg17
g13
sg18
g13
sg19
S'/Library/Fonts/Microsoft/Gill Sans MT Bold.ttf'
p1541
sg21
g22
sbag7
(g8
g9
NtRp1542
(dp1543
g12
g13
sg14
S'Hiragino Maru Gothic ProN'
p1544
sg16
I400
sg17
g13
sg18
g13
sg19
S'/Library/Fonts/\xe3\x83\x92\xe3\x83\xa9\xe3\x82\xad\xe3\x82\x99\xe3\x83\x8e\xe4\xb8\xb8\xe3\x82\xb3\xe3\x82\x99 ProN W4.otf'
p1545
sg21
g22
sbag7
(g8
g9
NtRp1546
(dp1547
g12
g58
sg14
S'Palatino Linotype'
p1548
sg16
I400
sg17
g13
sg18
g13
sg19
S'/Library/Fonts/Microsoft/Palatino Linotype Italic.ttf'
p1549
sg21
g22
sbag7
(g8
g9
NtRp1550
(dp1551
g12
g13
sg14
S'STIXSizeOneSym'
p1552
sg16
I400
sg17
g13
sg18
g13
sg19
S'/Library/Fonts/STIXSizOneSymReg.otf'
p1553
sg21
g22
sbag7
(g8
g9
NtRp1554
(dp1555
g12
g58
sg14
S'Orator Std'
p1556
sg16
I400
sg17
g13
sg18
g13
sg19
S'/Library/Fonts/OratorStd-Slanted.otf'
p1557
sg21
g22
sbag7
(g8
g9
NtRp1558
(dp1559
g12
g58
sg14
S'Myriad Hebrew'
p1560
sg16
I400
sg17
g13
sg18
g13
sg19
S'/Library/Fonts/MyriadHebrew-It.otf'
p1561
sg21
g22
sbag7
(g8
g9
NtRp1562
(dp1563
g12
g13
sg14
S'Wingdings 2'
p1564
sg16
I400
sg17
g13
sg18
g13
sg19
S'/Library/Fonts/Microsoft/Wingdings 2.ttf'
p1565
sg21
g22
sbag7
(g8
g9
NtRp1566
(dp1567
g12
g13
sg14
S'Baghdad'
p1568
sg16
I400
sg17
g13
sg18
g13
sg19
S'/Library/Fonts/Baghdad.ttf'
p1569
sg21
g22
sbag7
(g8
g9
NtRp1570
(dp1571
g12
g13
sg14
S'Microsoft Tai Le'
p1572
sg16
I400
sg17
g13
sg18
g13
sg19
S'/Library/Fonts/Microsoft/taile.ttf'
p1573
sg21
g22
sbag7
(g8
g9
NtRp1574
(dp1575
g12
g13
sg14
S'STHeiti'
p1576
sg16
I400
sg17
g13
sg18
g13
sg19
S'/Library/Fonts/\xe5\x8d\x8e\xe6\x96\x87\xe7\xbb\x86\xe9\xbb\x91.ttf'
p1577
sg21
g22
sbag7
(g8
g9
NtRp1578
(dp1579
g12
g58
sg14
S'Meiryo'
p1580
sg16
I400
sg17
g13
sg18
g13
sg19
S'/Library/Fonts/Microsoft/Meiryo Italic.ttf'
p1581
sg21
g22
sbag7
(g8
g9
NtRp1582
(dp1583
g12
g13
sg14
S'Kozuka Mincho Pro'
p1584
sg16
I400
sg17
g13
sg18
g13
sg19
S'/Library/Fonts/KozMinPro-ExtraLight.otf'
p1585
sg21
g22
sbag7
(g8
g9
NtRp1586
(dp1587
g12
g13
sg14
S'Apple Symbols'
p1588
sg16
I400
sg17
g13
sg18
g13
sg19
S'/System/Library/Fonts/Apple Symbols.ttf'
p1589
sg21
g22
sbag7
(g8
g9
NtRp1590
(dp1591
g12
g13
sg14
S'Hobo Std'
p1592
sg16
I500
sg17
g13
sg18
g13
sg19
S'/Library/Fonts/HoboStd.otf'
p1593
sg21
g22
sbag7
(g8
g9
NtRp1594
(dp1595
g12
g13
sg14
S'Kozuka Mincho Pr6N'
p1596
sg16
I400
sg17
g13
sg18
g13
sg19
S'/Library/Fonts/KozMinPr6N-Medium.otf'
p1597
sg21
g22
sbag7
(g8
g9
NtRp1598
(dp1599
g12
g13
sg14
S'Apple LiGothic'
p1600
sg16
I500
sg17
g13
sg18
g13
sg19
S'/Library/Fonts/Apple LiGothic Medium.ttf'
p1601
sg21
g22
sbag7
(g8
g9
NtRp1602
(dp1603
g12
g13
sg14
S'Calibri'
p1604
sg16
I400
sg17
g13
sg18
g13
sg19
S'/Library/Fonts/Microsoft/Calibri.ttf'
p1605
sg21
g22
sbag7
(g8
g9
NtRp1606
(dp1607
g12
g13
sg14
S'Nueva Std'
p1608
sg16
I700
sg17
g13
sg18
g13
sg19
S'/Library/Fonts/NuevaStd-Bold.otf'
p1609
sg21
g22
sbag7
(g8
g9
NtRp1610
(dp1611
g12
g13
sg14
S'Devanagari MT'
p1612
sg16
I400
sg17
g13
sg18
g13
sg19
S'/Library/Fonts/DevanagariMT.ttf'
p1613
sg21
g22
sbag7
(g8
g9
NtRp1614
(dp1615
g12
g13
sg14
S'STIXIntegralsD'
p1616
sg16
I400
sg17
g13
sg18
g13
sg19
S'/Library/Fonts/STIXIntDReg.otf'
p1617
sg21
g22
sbag7
(g8
g9
NtRp1618
(dp1619
g12
g13
sg14
S'Kozuka Gothic Pro'
p1620
sg16
I400
sg17
g13
sg18
g13
sg19
S'/Library/Fonts/KozGoPro-Regular.otf'
p1621
sg21
g22
sbag7
(g8
g9
NtRp1622
(dp1623
g12
g13
sg14
S'Sathu'
p1624
sg16
I400
sg17
g13
sg18
g13
sg19
S'/Library/Fonts/Sathu.ttf'
p1625
sg21
g22
sbag7
(g8
g9
NtRp1626
(dp1627
g12
g13
sg14
S'Gujarati MT'
p1628
sg16
I400
sg17
g13
sg18
g13
sg19
S'/Library/Fonts/GujaratiMT.ttf'
p1629
sg21
g22
sbag7
(g8
g9
NtRp1630
(dp1631
g12
g13
sg14
S'Apple SD Gothic Neo'
p1632
sg16
I500
sg17
g13
sg18
g13
sg19
S'/Library/Fonts/AppleSDGothicNeo-Medium.otf'
p1633
sg21
g22
sbasS'defaultFamily'
p1634
(dp1635
S'afm'
p1636
S'Helvetica'
p1637
sS'ttf'
p1638
S'Bitstream Vera Sans'
p1639
ssS'ttffiles'
p1640
(lp1641
S'/Users/Angelica/anaconda/lib/python2.7/site-packages/matplotlib/mpl-data/fonts/ttf/STIXSizFourSymBol.ttf'
p1642
aS'/Users/Angelica/anaconda/lib/python2.7/site-packages/matplotlib/mpl-data/fonts/ttf/cmsy10.ttf'
p1643
aS'/Users/Angelica/anaconda/lib/python2.7/site-packages/matplotlib/mpl-data/fonts/ttf/VeraSeBd.ttf'
p1644
aS'/Users/Angelica/anaconda/lib/python2.7/site-packages/matplotlib/mpl-data/fonts/ttf/cmss10.ttf'
p1645
aS'/Users/Angelica/anaconda/lib/python2.7/site-packages/matplotlib/mpl-data/fonts/ttf/STIXNonUniBol.ttf'
p1646
aS'/Users/Angelica/anaconda/lib/python2.7/site-packages/matplotlib/mpl-data/fonts/ttf/STIXSizTwoSymBol.ttf'
p1647
aS'/Users/Angelica/anaconda/lib/python2.7/site-packages/matplotlib/mpl-data/fonts/ttf/STIXSizFiveSymReg.ttf'
p1648
aS'/Users/Angelica/anaconda/lib/python2.7/site-packages/matplotlib/mpl-data/fonts/ttf/VeraIt.ttf'
p1649
aS'/Users/Angelica/anaconda/lib/python2.7/site-packages/matplotlib/mpl-data/fonts/ttf/VeraMoBI.ttf'
p1650
aS'/Users/Angelica/anaconda/lib/python2.7/site-packages/matplotlib/mpl-data/fonts/ttf/STIXNonUniBolIta.ttf'
p1651
aS'/Users/Angelica/anaconda/lib/python2.7/site-packages/matplotlib/mpl-data/fonts/ttf/VeraMoIt.ttf'
p1652
aS'/Users/Angelica/anaconda/lib/python2.7/site-packages/matplotlib/mpl-data/fonts/ttf/Vera.ttf'
p1653
aS'/Users/Angelica/anaconda/lib/python2.7/site-packages/matplotlib/mpl-data/fonts/ttf/cmb10.ttf'
p1654
aS'/Users/Angelica/anaconda/lib/python2.7/site-packages/matplotlib/mpl-data/fonts/ttf/cmmi10.ttf'
p1655
aS'/Users/Angelica/anaconda/lib/python2.7/site-packages/matplotlib/mpl-data/fonts/ttf/STIXSizOneSymBol.ttf'
p1656
aS'/Users/Angelica/anaconda/lib/python2.7/site-packages/matplotlib/mpl-data/fonts/ttf/VeraMono.ttf'
p1657
aS'/Users/Angelica/anaconda/lib/python2.7/site-packages/matplotlib/mpl-data/fonts/ttf/STIXSizThreeSymBol.ttf'
p1658
aS'/Users/Angelica/anaconda/lib/python2.7/site-packages/matplotlib/mpl-data/fonts/ttf/STIXGeneral.ttf'
p1659
aS'/Users/Angelica/anaconda/lib/python2.7/site-packages/matplotlib/mpl-data/fonts/ttf/STIXSizTwoSymReg.ttf'
p1660
aS'/Users/Angelica/anaconda/lib/python2.7/site-packages/matplotlib/mpl-data/fonts/ttf/cmex10.ttf'
p1661
aS'/Users/Angelica/anaconda/lib/python2.7/site-packages/matplotlib/mpl-data/fonts/ttf/cmtt10.ttf'
p1662
aS'/Users/Angelica/anaconda/lib/python2.7/site-packages/matplotlib/mpl-data/fonts/ttf/STIXSizFourSymReg.ttf'
p1663
aS'/Users/Angelica/anaconda/lib/python2.7/site-packages/matplotlib/mpl-data/fonts/ttf/STIXGeneralBol.ttf'
p1664
aS'/Users/Angelica/anaconda/lib/python2.7/site-packages/matplotlib/mpl-data/fonts/ttf/cmr10.ttf'
p1665
aS'/Users/Angelica/anaconda/lib/python2.7/site-packages/matplotlib/mpl-data/fonts/ttf/STIXSizThreeSymReg.ttf'
p1666
aS'/Users/Angelica/anaconda/lib/python2.7/site-packages/matplotlib/mpl-data/fonts/ttf/STIXSizOneSymReg.ttf'
p1667
aS'/Users/Angelica/anaconda/lib/python2.7/site-packages/matplotlib/mpl-data/fonts/ttf/VeraBI.ttf'
p1668
aS'/Users/Angelica/anaconda/lib/python2.7/site-packages/matplotlib/mpl-data/fonts/ttf/STIXGeneralItalic.ttf'
p1669
aS'/Users/Angelica/anaconda/lib/python2.7/site-packages/matplotlib/mpl-data/fonts/ttf/STIXNonUniIta.ttf'
p1670
aS'/Users/Angelica/anaconda/lib/python2.7/site-packages/matplotlib/mpl-data/fonts/ttf/VeraSe.ttf'
p1671
aS'/Users/Angelica/anaconda/lib/python2.7/site-packages/matplotlib/mpl-data/fonts/ttf/VeraBd.ttf'
p1672
aS'/Users/Angelica/anaconda/lib/python2.7/site-packages/matplotlib/mpl-data/fonts/ttf/VeraMoBd.ttf'
p1673
aS'/Users/Angelica/anaconda/lib/python2.7/site-packages/matplotlib/mpl-data/fonts/ttf/STIXNonUni.ttf'
p1674
aS'/Users/Angelica/anaconda/lib/python2.7/site-packages/matplotlib/mpl-data/fonts/ttf/STIXGeneralBolIta.ttf'
p1675
aS'/Library/Fonts/Trebuchet MS Italic.ttf'
p1676
aS'/Library/Fonts/MshtakanRegular.ttf'
p1677
aS'/Library/Fonts/MyriadPro-CondIt.otf'
p1678
aS'/Library/Fonts/PoplarStd.otf'
p1679
aS'/Library/Fonts/KozGoPr6N-ExtraLight.otf'
p1680
aS'/Library/Fonts/Microsoft/Gill Sans MT Italic.ttf'
p1681
aS'/Library/Fonts/NISC18030.ttf'
p1682
aS'/Library/Fonts/AppleMyungjo.ttf'
p1683
aS'/Library/Fonts/Osaka.ttf'
p1684
aS'/Library/Fonts/STIXSizThreeSymBol.otf'
p1685
aS'/System/Library/Fonts/Symbol.ttf'
p1686
aS'/Library/Fonts/AlBayan.ttf'
p1687
aS'/Library/Fonts/Microsoft/Candara Bold.ttf'
p1688
aS'/Library/Fonts/Microsoft/Tw Cen MT.ttf'
p1689
aS'/Library/Fonts/MyriadPro-It.otf'
p1690
aS'/Library/Fonts/Microsoft/Corbel Bold.ttf'
p1691
aS'/Library/Fonts/Nadeem.ttf'
p1692
aS'/Library/Fonts/AlBayanBold.ttf'
p1693
aS'/Library/Fonts/KozGoPr6N-Regular.otf'
p1694
aS'/Library/Fonts/TektonPro-Bold.otf'
p1695
aS'/Library/Fonts/MshtakanBold.ttf'
p1696
aS'/Library/Fonts/MyriadArabic-It.otf'
p1697
aS'/Library/Fonts/NuevaStd-Italic.otf'
p1698
aS'/Library/Fonts/Microsoft/Calibril.ttf'
p1699
aS'/Library/Fonts/LetterGothicStd.otf'
p1700
aS'/Library/Fonts/STIXSizFiveSymReg.otf'
p1701
aS'/Library/Fonts/Gurmukhi.ttf'
p1702
aS'/Library/Fonts/Yu Gothic Bold.otf'
p1703
aS'/System/Library/Fonts/Apple Color Emoji.ttf'
p1704
aS'/Library/Fonts/Microsoft/Cambria Italic.ttf'
p1705
aS'/Library/Fonts/TektonPro-BoldObl.otf'
p1706
aS'/Library/Fonts/AdobeMyungjoStd-Medium.otf'
p1707
aS'/Library/Fonts/\xe3\x83\x92\xe3\x83\xa9\xe3\x82\xad\xe3\x82\x99\xe3\x83\x8e\xe4\xb8\xb8\xe3\x82\xb3\xe3\x82\x99 Pro W4.otf'
p1708
aS'/Library/Fonts/Microsoft/Perpetua Bold Italic.ttf'
p1709
aS'/Library/Fonts/AdobeGothicStd-Bold.otf'
p1710
aS'/Library/Fonts/Microsoft/Verdana Bold.ttf'
p1711
aS'/Library/Fonts/MyriadPro-Semibold.otf'
p1712
aS'/Library/Fonts/Microsoft/Verdana.ttf'
p1713
aS'/Library/Fonts/Khmer Sangam MN.ttf'
p1714
aS'/Library/Fonts/PCmyoungjo.ttf'
p1715
aS'/Library/Fonts/Microsoft/mingliu_hkscs.ttf'
p1716
aS'/Library/Fonts/KozMinPr6N-Bold.otf'
p1717
aS'/Library/Fonts/Kokonor.ttf'
p1718
aS'/Library/Fonts/AdobeDevanagari-BoldItalic.otf'
p1719
aS'/System/Library/Fonts/Apple Braille.ttf'
p1720
aS'/Library/Fonts/\xe3\x83\x92\xe3\x83\xa9\xe3\x82\xad\xe3\x82\x99\xe3\x83\x8e\xe6\x98\x8e\xe6\x9c\x9d Pro W6.otf'
p1721
aS'/Library/Fonts/Kailasa.ttf'
p1722
aS'/Library/Fonts/STIXNonUniIta.otf'
p1723
aS'/Library/Fonts/Microsoft/MS Mincho.ttf'
p1724
aS'/Library/Fonts/TektonPro-BoldExt.otf'
p1725
aS'/Library/Fonts/ChaparralPro-Italic.otf'
p1726
aS'/Library/Fonts/Comic Sans MS Bold.ttf'
p1727
aS'/Library/Fonts/AGaramondPro-BoldItalic.otf'
p1728
aS'/Library/Fonts/AppleSDGothicNeo-SemiBold.otf'
p1729
aS'/Library/Fonts/STIXNonUniBol.otf'
p1730
aS'/Library/Fonts/Webdings.ttf'
p1731
aS'/System/Library/Fonts/Apple Braille Pinpoint 6 Dot.ttf'
p1732
aS'/Library/Fonts/KozMinPr6N-Heavy.otf'
p1733
aS'/Library/Fonts/Microsoft/MingLiU_HKSCS-ExtB.ttf'
p1734
aS'/Library/Fonts/KozGoPro-Heavy.otf'
p1735
aS'/Library/Fonts/Microsoft/Franklin Gothic Book Italic.ttf'
p1736
aS'/Library/Fonts/Microsoft/Palatino Linotype Bold Italic.ttf'
p1737
aS'/Library/Fonts/STIXIntUpSmReg.otf'
p1738
aS'/Library/Fonts/Microsoft/Meiryo.ttf'
p1739
aS'/Library/Fonts/MinionPro-MediumIt.otf'
p1740
aS'/Library/Fonts/KozMinPro-Regular.otf'
p1741
aS'/Library/Fonts/Kai.ttf'
p1742
aS'/Library/Fonts/Courier New Italic.ttf'
p1743
aS'/Library/Fonts/Microsoft/Verdana Bold Italic.ttf'
p1744
aS'/Library/Fonts/Arial Black.ttf'
p1745
aS'/Library/Fonts/MyriadPro-SemiboldIt.otf'
p1746
aS'/Library/Fonts/STIXGeneralItalic.otf'
p1747
aS'/Library/Fonts/MyriadPro-BoldCondIt.otf'
p1748
aS'/Library/Fonts/STIXSizFourSymReg.otf'
p1749
aS'/Library/Fonts/AdobeKaitiStd-Regular.otf'
p1750
aS'/Library/Fonts/Microsoft/msyi.ttf'
p1751
aS'/Library/Fonts/NuevaStd-Cond.otf'
p1752
aS'/Library/Fonts/Microsoft/Times New Roman Bold Italic.ttf'
p1753
aS'/Library/Fonts/Microsoft/Wingdings 3.ttf'
p1754
aS'/Library/Fonts/Microsoft/Consolas.ttf'
p1755
aS'/Library/Fonts/Microsoft/Perpetua Italic.ttf'
p1756
aS'/Library/Fonts/Comic Sans MS.ttf'
p1757
aS'/Library/Fonts/KozMinPr6N-Light.otf'
p1758
aS'/Library/Fonts/Microsoft/PMingLiU.ttf'
p1759
aS'/Library/Fonts/Microsoft/Arial.ttf'
p1760
aS'/Library/Fonts/STIXSizFourSymBol.otf'
p1761
aS'/Library/Fonts/KozGoPr6N-Medium.otf'
p1762
aS'/Library/Fonts/Microsoft/Marlett.ttf'
p1763
aS'/Library/Fonts/Microsoft/Calibri Bold.ttf'
p1764
aS'/Library/Fonts/YuppySC-Regular.otf'
p1765
aS'/Library/Fonts/MinionPro-Medium.otf'
p1766
aS'/Library/Fonts/Impact.ttf'
p1767
aS'/Library/Fonts/Tahoma Bold.ttf'
p1768
aS'/Library/Fonts/Georgia Bold Italic.ttf'
p1769
aS'/Library/Fonts/TektonPro-BoldCond.otf'
p1770
aS'/Library/Fonts/MyriadArabic-BoldIt.otf'
p1771
aS'/Library/Fonts/Hoefler Text Ornaments.ttf'
p1772
aS'/Library/Fonts/ChaparralPro-LightIt.otf'
p1773
aS'/Library/Fonts/AdobeArabic-Italic.otf'
p1774
aS'/System/Library/Fonts/\xe3\x83\x92\xe3\x83\xa9\xe3\x82\xad\xe3\x82\x99\xe3\x83\x8e\xe6\x98\x8e\xe6\x9c\x9d ProN W6.otf'
p1775
aS'/Library/Fonts/RosewoodStd-Regular.otf'
p1776
aS'/Library/Fonts/AdobeArabic-Bold.otf'
p1777
aS'/Library/Fonts/Pilgiche.ttf'
p1778
aS'/Library/Fonts/Microsoft/Gill Sans MT.ttf'
p1779
aS'/Library/Fonts/MyriadArabic-Regular.otf'
p1780
aS'/Library/Fonts/Microsoft/Constantia.ttf'
p1781
aS'/Library/Fonts/Microsoft/Verdana Italic.ttf'
p1782
aS'/Library/Fonts/Yu Gothic Medium.otf'
p1783
aS'/Library/Fonts/GujaratiMTBold.ttf'
p1784
aS'/Library/Fonts/LetterGothicStd-BoldSlanted.otf'
p1785
aS'/Library/Fonts/NuevaStd-CondItalic.otf'
p1786
aS'/Library/Fonts/Microsoft/Arial Italic.ttf'
p1787
aS'/System/Library/Fonts/ZapfDingbats.ttf'
p1788
aS'/Library/Fonts/Microsoft/Calibri Bold Italic.ttf'
p1789
aS'/Library/Fonts/Apple LiSung Light.ttf'
p1790
aS'/Library/Fonts/Microsoft/Corbel Bold Italic.ttf'
p1791
aS'/Library/Fonts/AGaramondPro-Bold.otf'
p1792
aS'/Library/Fonts/StencilStd.otf'
p1793
aS'/Library/Fonts/MyriadPro-Regular.otf'
p1794
aS'/Library/Fonts/MyriadPro-Cond.otf'
p1795
aS'/Library/Fonts/Trebuchet MS Bold Italic.ttf'
p1796
aS'/Library/Fonts/STIXIntSmBol.otf'
p1797
aS'/Library/Fonts/AdobeMingStd-Light.otf'
p1798
aS'/Library/Fonts/Microsoft/Meiryo Bold.ttf'
p1799
aS'/Library/Fonts/CooperBlackStd.otf'
p1800
aS'/Library/Fonts/KozGoPro-ExtraLight.otf'
p1801
aS'/Library/Fonts/Microsoft/Tw Cen MT Italic.ttf'
p1802
aS'/Library/Fonts/Microsoft/Bookshelf Symbol 7.ttf'
p1803
aS'/Library/Fonts/ChaparralPro-BoldIt.otf'
p1804
aS'/Library/Fonts/Microsoft/Consolas Bold.ttf'
p1805
aS'/Library/Fonts/AdobeSongStd-Light.otf'
p1806
aS'/Library/Fonts/Hiragino Sans GB W3.otf'
p1807
aS'/Library/Fonts/AdobeHebrew-BoldItalic.otf'
p1808
aS'/Library/Fonts/STIXNonUni.otf'
p1809
aS'/Library/Fonts/Trebuchet MS Bold.ttf'
p1810
aS'/Library/Fonts/\xe5\x84\xb7\xe5\xae\x8b Pro.ttf'
p1811
aS'/Library/Fonts/STIXNonUniBolIta.otf'
p1812
aS'/Library/Fonts/AdobeDevanagari-Bold.otf'
p1813
aS'/Library/Fonts/BrushScriptStd.otf'
p1814
aS'/Library/Fonts/WawaSC-Regular.otf'
p1815
aS'/Library/Fonts/Microsoft/SimHei.ttf'
p1816
aS'/Library/Fonts/AppleSDGothicNeo-Light.otf'
p1817
aS'/Library/Fonts/ACaslonPro-Bold.otf'
p1818
aS'/Library/Fonts/STIXIntSmReg.otf'
p1819
aS'/Library/Fonts/MyriadPro-BoldCond.otf'
p1820
aS'/Library/Fonts/ACaslonPro-Italic.otf'
p1821
aS'/Library/Fonts/Georgia Bold.ttf'
p1822
aS'/Library/Fonts/Chalkduster.ttf'
p1823
aS'/Library/Fonts/WeibeiTC-Bold.otf'
p1824
aS'/Library/Fonts/MinionPro-BoldIt.otf'
p1825
aS'/Library/Fonts/ACaslonPro-Regular.otf'
p1826
aS'/Library/Fonts/STIXIntUpReg.otf'
p1827
aS'/Library/Fonts/MesquiteStd.otf'
p1828
aS'/Library/Fonts/BigCaslon.ttf'
p1829
aS'/Library/Fonts/AdobeHebrew-Italic.otf'
p1830
aS'/Library/Fonts/Ayuthaya.ttf'
p1831
aS'/Library/Fonts/OratorStd.otf'
p1832
aS'/Library/Fonts/BlackoakStd.otf'
p1833
aS'/Library/Fonts/\xe3\x83\x92\xe3\x83\xa9\xe3\x82\xad\xe3\x82\x99\xe3\x83\x8e\xe8\xa7\x92\xe3\x82\xb3\xe3\x82\x99 Pro W6.otf'
p1834
aS'/Library/Fonts/MinionPro-It.otf'
p1835
aS'/Library/Fonts/Microsoft/Arial Bold Italic.ttf'
p1836
aS'/Library/Fonts/MinionPro-Bold.otf'
p1837
aS'/Library/Fonts/Yu Mincho Medium.otf'
p1838
aS'/Library/Fonts/MinionPro-BoldCnIt.otf'
p1839
aS'/Library/Fonts/Andale Mono.ttf'
p1840
aS'/Library/Fonts/Microsoft/Consolas Italic.ttf'
p1841
aS'/Library/Fonts/LetterGothicStd-Bold.otf'
p1842
aS'/Library/Fonts/Silom.ttf'
p1843
aS'/Library/Fonts/MshtakanBoldOblique.ttf'
p1844
aS'/Library/Fonts/Microsoft/Calibri Italic.ttf'
p1845
aS'/Library/Fonts/Microsoft/Candara.ttf'
p1846
aS'/Library/Fonts/Microsoft/MingLiU.ttf'
p1847
aS'/Library/Fonts/Microsoft/Gulim.ttf'
p1848
aS'/Library/Fonts/Lao Sangam MN.ttf'
p1849
aS'/Library/Fonts/KufiStandardGK.ttf'
p1850
aS'/Library/Fonts/Hei.ttf'
p1851
aS'/Library/Fonts/Microsoft/Cambria Bold Italic.ttf'
p1852
aS'/Library/Fonts/Microsoft/Gabriola.ttf'
p1853
aS'/System/Library/Fonts/\xe3\x83\x92\xe3\x83\xa9\xe3\x82\xad\xe3\x82\x99\xe3\x83\x8e\xe6\x98\x8e\xe6\x9c\x9d ProN W3.otf'
p1854
aS'/Library/Fonts/ACaslonPro-BoldItalic.otf'
p1855
aS'/Library/Fonts/ACaslonPro-SemiboldItalic.otf'
p1856
aS'/Library/Fonts/AdobeNaskh-Medium.otf'
p1857
aS'/Library/Fonts/OCRAStd.otf'
p1858
aS'/Library/Fonts/STIXSizThreeSymReg.otf'
p1859
aS'/Library/Fonts/DIN Condensed Bold.ttf'
p1860
aS'/Library/Fonts/Microsoft/himalaya.ttf'
p1861
aS'/Library/Fonts/AppleGothic.ttf'
p1862
aS'/Library/Fonts/Arial Narrow.ttf'
p1863
aS'/System/Library/Fonts/AppleSDGothicNeo-Bold.otf'
p1864
aS'/Library/Fonts/MshtakanOblique.ttf'
p1865
aS'/Library/Fonts/Microsoft/Times New Roman Italic.ttf'
p1866
aS'/Library/Fonts/Microsoft/Times New Roman.ttf'
p1867
aS'/Library/Fonts/Microsoft/PMingLiU-ExtB.ttf'
p1868
aS'/Library/Fonts/Myanmar Sangam MN.ttf'
p1869
aS'/Library/Fonts/Arial Narrow Bold.ttf'
p1870
aS'/Library/Fonts/Georgia.ttf'
p1871
aS'/Library/Fonts/NuevaStd-BoldCondItalic.otf'
p1872
aS'/Library/Fonts/CharlemagneStd-Bold.otf'
p1873
aS'/Library/Fonts/PrestigeEliteStd-Bd.otf'
p1874
aS'/Library/Fonts/Microsoft/Constantia Bold.ttf'
p1875
aS'/Library/Fonts/MinionPro-Regular.otf'
p1876
aS'/Library/Fonts/Arial Narrow Italic.ttf'
p1877
aS'/Library/Fonts/\xe5\x84\xb7\xe9\xbb\x91 Pro.ttf'
p1878
aS'/System/Library/Fonts/AppleSDGothicNeo-Regular.otf'
p1879
aS'/Library/Fonts/Microsoft/Arial Bold.ttf'
p1880
aS'/Library/Fonts/Microsoft/Tw Cen MT Bold.ttf'
p1881
aS'/Library/Fonts/PlantagenetCherokee.ttf'
p1882
aS'/Library/Fonts/BiauKai.ttf'
p1883
aS'/Library/Fonts/Microsoft/Brush Script.ttf'
p1884
aS'/Library/Fonts/Microsoft/Tw Cen MT Bold Italic.ttf'
p1885
aS'/Library/Fonts/STIXVar.otf'
p1886
aS'/Library/Fonts/Microsoft/Candara Bold Italic.ttf'
p1887
aS'/System/Library/Fonts/\xe3\x83\x92\xe3\x83\xa9\xe3\x82\xad\xe3\x82\x99\xe3\x83\x8e\xe8\xa7\x92\xe3\x82\xb3\xe3\x82\x99 ProN W6.otf'
p1888
aS'/Library/Fonts/LithosPro-Black.otf'
p1889
aS'/Library/Fonts/BirchStd.otf'
p1890
aS'/Library/Fonts/Microsoft/Cambria Math.ttf'
p1891
aS'/Library/Fonts/Skia.ttf'
p1892
aS'/Library/Fonts/KozGoPr6N-Bold.otf'
p1893
aS'/Library/Fonts/AdobeArabic-Regular.otf'
p1894
aS'/Library/Fonts/KozMinPro-Heavy.otf'
p1895
aS'/Library/Fonts/Yu Mincho Demibold.otf'
p1896
aS'/Library/Fonts/\xe5\x8d\x8e\xe6\x96\x87\xe4\xbb\xbf\xe5\xae\x8b.ttf'
p1897
aS'/Library/Fonts/Microsoft/Lucida Console.ttf'
p1898
aS'/Library/Fonts/LithosPro-Regular.otf'
p1899
aS'/Library/Fonts/TrajanPro-Regular.otf'
p1900
aS'/Library/Fonts/KozMinPro-Bold.otf'
p1901
aS'/Library/Fonts/Microsoft/Perpetua.ttf'
p1902
aS'/Library/Fonts/NuevaStd-BoldCond.otf'
p1903
aS'/Library/Fonts/Microsoft/Cambria Bold.ttf'
p1904
aS'/Library/Fonts/Courier New Bold Italic.ttf'
p1905
aS'/Library/Fonts/Arial Rounded Bold.ttf'
p1906
aS'/Library/Fonts/DevanagariMTBold.ttf'
p1907
aS'/Library/Fonts/TrajanPro-Bold.otf'
p1908
aS'/Library/Fonts/AdobeArabic-BoldItalic.otf'
p1909
aS'/Library/Fonts/KozGoPr6N-Light.otf'
p1910
aS'/Library/Fonts/Microsoft/MingLiU-ExtB.ttf'
p1911
aS'/Library/Fonts/Microsoft/Franklin Gothic Medium Italic.ttf'
p1912
aS'/Library/Fonts/KozMinPro-Medium.otf'
p1913
aS'/Library/Fonts/Microsoft/Constantia Italic.ttf'
p1914
aS'/Library/Fonts/InaiMathi.ttf'
p1915
aS'/Library/Fonts/Microsoft/Cambria.ttf'
p1916
aS'/Library/Fonts/Microsoft/Perpetua Bold.ttf'
p1917
aS'/Library/Fonts/Microsoft/Batang.ttf'
p1918
aS'/Library/Fonts/KozGoPro-Light.otf'
p1919
aS'/Library/Fonts/MinionPro-Semibold.otf'
p1920
aS'/Library/Fonts/LetterGothicStd-Slanted.otf'
p1921
aS'/Library/Fonts/DecoTypeNaskh.ttf'
p1922
aS'/Library/Fonts/MyriadPro-BoldIt.otf'
p1923
aS'/Library/Fonts/HeadlineA.ttf'
p1924
aS'/System/Library/Fonts/Keyboard.ttf'
p1925
aS'/Library/Fonts/\xe3\x83\x92\xe3\x83\xa9\xe3\x82\xad\xe3\x82\x99\xe3\x83\x8e\xe8\xa7\x92\xe3\x82\xb3\xe3\x82\x99 Std W8.otf'
p1926
aS'/Library/Fonts/Microsoft/Lucida Sans Unicode.ttf'
p1927
aS'/Library/Fonts/Hiragino Sans GB W6.otf'
p1928
aS'/System/Library/Fonts/Geeza Pro.ttf'
p1929
aS'/Library/Fonts/Microsoft/Consolas Bold Italic.ttf'
p1930
aS'/Library/Fonts/Microsoft Sans Serif.ttf'
p1931
aS'/Library/Fonts/STIXIntUpDBol.otf'
p1932
aS'/Library/Fonts/MyriadPro-Bold.otf'
p1933
aS'/Library/Fonts/STIXGeneral.otf'
p1934
aS'/Library/Fonts/\xe3\x83\x92\xe3\x83\xa9\xe3\x82\xad\xe3\x82\x99\xe3\x83\x8e\xe8\xa7\x92\xe3\x82\xb3\xe3\x82\x99 Pro W3.otf'
p1935
aS'/Library/Fonts/GiddyupStd.otf'
p1936
aS'/Library/Fonts/YuppyTC-Regular.otf'
p1937
aS'/Library/Fonts/Apple Chancery.ttf'
p1938
aS'/Library/Fonts/STIXIntUpSmBol.otf'
p1939
aS'/Library/Fonts/MyriadHebrew-BoldIt.otf'
p1940
aS'/Library/Fonts/STIXSizOneSymBol.otf'
p1941
aS'/Library/Fonts/Microsoft/SimSun-ExtB.ttf'
p1942
aS'/Library/Fonts/Microsoft/Palatino Linotype.ttf'
p1943
aS'/Library/Fonts/AdobeHebrew-Regular.otf'
p1944
aS'/Library/Fonts/STIXSizTwoSymReg.otf'
p1945
aS'/Library/Fonts/WeibeiSC-Bold.otf'
p1946
aS'/Library/Fonts/Microsoft/MS PGothic.ttf'
p1947
aS'/Library/Fonts/Microsoft/TaiLeb.ttf'
p1948
aS'/Library/Fonts/STIXIntUpDReg.otf'
p1949
aS'/Library/Fonts/Microsoft/Meiryo Bold Italic.ttf'
p1950
aS'/Library/Fonts/KozGoPro-Bold.otf'
p1951
aS'/Library/Fonts/Microsoft/Candara Italic.ttf'
p1952
aS'/Library/Fonts/KozGoPro-Medium.otf'
p1953
aS'/Library/Fonts/AppleSDGothicNeo-UltraLight.otf'
p1954
aS'/Library/Fonts/Arial Unicode.ttf'
p1955
aS'/Library/Fonts/AdobeHeitiStd-Regular.otf'
p1956
aS'/Library/Fonts/KozGoPr6N-Heavy.otf'
p1957
aS'/Library/Fonts/AdobeDevanagari-Italic.otf'
p1958
aS'/Library/Fonts/AppleSDGothicNeo-Heavy.otf'
p1959
aS'/Library/Fonts/MyriadHebrew-Regular.otf'
p1960
aS'/Library/Fonts/Microsoft/Times New Roman Bold.ttf'
p1961
aS'/Library/Fonts/KozMinPr6N-Regular.otf'
p1962
aS'/Library/Fonts/AdobeFanHeitiStd-Bold.otf'
p1963
aS'/Library/Fonts/STIXIntDBol.otf'
p1964
aS'/Library/Fonts/ChaparralPro-Bold.otf'
p1965
aS'/Library/Fonts/DIN Alternate Bold.ttf'
p1966
aS'/Library/Fonts/Courier New.ttf'
p1967
aS'/Library/Fonts/Arial Narrow Bold Italic.ttf'
p1968
aS'/Library/Fonts/Zapfino.ttf'
p1969
aS'/Library/Fonts/Krungthep.ttf'
p1970
aS'/Library/Fonts/AppleSDGothicNeo-ExtraBold.otf'
p1971
aS'/Library/Fonts/Microsoft/monbaiti.ttf'
p1972
aS'/Library/Fonts/Microsoft/Franklin Gothic Medium.ttf'
p1973
aS'/Library/Fonts/MyriadHebrew-Bold.otf'
p1974
aS'/Library/Fonts/CooperBlackStd-Italic.otf'
p1975
aS'/Library/Fonts/MinionPro-BoldCn.otf'
p1976
aS'/System/Library/Fonts/\xe3\x83\x92\xe3\x83\xa9\xe3\x82\xad\xe3\x82\x99\xe3\x83\x8e\xe8\xa7\x92\xe3\x82\xb3\xe3\x82\x99 ProN W3.otf'
p1977
aS'/Library/Fonts/\xe5\x8d\x8e\xe6\x96\x87\xe9\xbb\x91\xe4\xbd\x93.ttf'
p1978
aS'/System/Library/Fonts/Apple Braille Outline 8 Dot.ttf'
p1979
aS'/Library/Fonts/KozMinPro-Light.otf'
p1980
aS'/Library/Fonts/Microsoft/Corbel Italic.ttf'
p1981
aS'/Library/Fonts/Microsoft/Palatino Linotype Bold.ttf'
p1982
aS'/Library/Fonts/AGaramondPro-Italic.otf'
p1983
aS'/Library/Fonts/STIXVarBol.otf'
p1984
aS'/Library/Fonts/\xe3\x83\x92\xe3\x83\xa9\xe3\x82\xad\xe3\x82\x99\xe3\x83\x8e\xe8\xa7\x92\xe3\x82\xb3\xe3\x82\x99 StdN W8.otf'
p1985
aS'/Library/Fonts/Microsoft/MS Gothic.ttf'
p1986
aS'/Library/Fonts/Microsoft/MS PMincho.ttf'
p1987
aS'/Library/Fonts/STIXIntUpBol.otf'
p1988
aS'/Library/Fonts/WawaTC-Regular.otf'
p1989
aS'/Library/Fonts/Microsoft/MS Reference Sans Serif.ttf'
p1990
aS'/Library/Fonts/STIXSizTwoSymBol.otf'
p1991
aS'/Library/Fonts/\xe3\x83\x92\xe3\x83\xa9\xe3\x82\xad\xe3\x82\x99\xe3\x83\x8e\xe6\x98\x8e\xe6\x9c\x9d Pro W3.otf'
p1992
aS'/Library/Fonts/Microsoft/Corbel.ttf'
p1993
aS'/Library/Fonts/ACaslonPro-Semibold.otf'
p1994
aS'/Library/Fonts/Microsoft/SimSun.ttf'
p1995
aS'/System/Library/Fonts/Apple Braille Pinpoint 8 Dot.ttf'
p1996
aS'/Library/Fonts/Georgia Italic.ttf'
p1997
aS'/System/Library/Fonts/Apple Braille Outline 6 Dot.ttf'
p1998
aS'/Library/Fonts/AdobeHebrew-Bold.otf'
p1999
aS'/Library/Fonts/Microsoft/Gill Sans MT Bold Italic.ttf'
p2000
aS'/Library/Fonts/AGaramondPro-Regular.otf'
p2001
aS'/Library/Fonts/MyriadArabic-Bold.otf'
p2002
aS'/Library/Fonts/ChaparralPro-Regular.otf'
p2003
aS'/System/Library/Fonts/LastResort.ttf'
p2004
aS'/Library/Fonts/AppleSDGothicNeo-Thin.otf'
p2005
aS'/System/Library/Fonts/Geeza Pro Bold.ttf'
p2006
aS'/Library/Fonts/STIXGeneralBol.otf'
p2007
aS'/Library/Fonts/Microsoft/Constantia Bold Italic.ttf'
p2008
aS'/Library/Fonts/Microsoft/Franklin Gothic Book.ttf'
p2009
aS'/Library/Fonts/OsakaMono.ttf'
p2010
aS'/Library/Fonts/KozMinPr6N-ExtraLight.otf'
p2011
aS'/Library/Fonts/STIXGeneralBolIta.otf'
p2012
aS'/Library/Fonts/Trebuchet MS.ttf'
p2013
aS'/Library/Fonts/Courier New Bold.ttf'
p2014
aS'/Library/Fonts/AdobeFangsongStd-Regular.otf'
p2015
aS'/Library/Fonts/Herculanum.ttf'
p2016
aS'/Library/Fonts/Microsoft/Wingdings.ttf'
p2017
aS'/Library/Fonts/MinionPro-SemiboldIt.otf'
p2018
aS'/Library/Fonts/AdobeDevanagari-Regular.otf'
p2019
aS'/Library/Fonts/Microsoft/MS Reference Specialty.ttf'
p2020
aS'/Library/Fonts/Tahoma.ttf'
p2021
aS'/Library/Fonts/Microsoft/Gill Sans MT Bold.ttf'
p2022
aS'/Library/Fonts/\xe3\x83\x92\xe3\x83\xa9\xe3\x82\xad\xe3\x82\x99\xe3\x83\x8e\xe4\xb8\xb8\xe3\x82\xb3\xe3\x82\x99 ProN W4.otf'
p2023
aS'/Library/Fonts/Microsoft/Palatino Linotype Italic.ttf'
p2024
aS'/Library/Fonts/STIXSizOneSymReg.otf'
p2025
aS'/Library/Fonts/OratorStd-Slanted.otf'
p2026
aS'/Library/Fonts/MyriadHebrew-It.otf'
p2027
aS'/Library/Fonts/Microsoft/Wingdings 2.ttf'
p2028
aS'/Library/Fonts/Baghdad.ttf'
p2029
aS'/Library/Fonts/Microsoft/taile.ttf'
p2030
aS'/Library/Fonts/\xe5\x8d\x8e\xe6\x96\x87\xe7\xbb\x86\xe9\xbb\x91.ttf'
p2031
aS'/Library/Fonts/Microsoft/Meiryo Italic.ttf'
p2032
aS'/Library/Fonts/KozMinPro-ExtraLight.otf'
p2033
aS'/System/Library/Fonts/Apple Symbols.ttf'
p2034
aS'/Library/Fonts/HoboStd.otf'
p2035
aS'/Library/Fonts/KozMinPr6N-Medium.otf'
p2036
aS'/Library/Fonts/Apple LiGothic Medium.ttf'
p2037
aS'/Library/Fonts/Microsoft/Calibri.ttf'
p2038
aS'/Library/Fonts/NuevaStd-Bold.otf'
p2039
aS'/Library/Fonts/DevanagariMT.ttf'
p2040
aS'/Library/Fonts/STIXIntDReg.otf'
p2041
aS'/Library/Fonts/Gungseouche.ttf'
p2042
aS'/Library/Fonts/KozGoPro-Regular.otf'
p2043
aS'/Library/Fonts/Sathu.ttf'
p2044
aS'/Library/Fonts/GujaratiMT.ttf'
p2045
aS'/Library/Fonts/AppleSDGothicNeo-Medium.otf'
p2046
asS'_FontManager__default_weight'
p2047
g13
sS'_version'
p2048
I101
sS'ttf_lookup_cache'
p2049
(dp2050
sS'default_size'
p2051
NsS'defaultFont'
p2052
(dp2053
g1636
S'/Users/Angelica/anaconda/lib/python2.7/site-packages/matplotlib/mpl-data/fonts/afm/phvl8a.afm'
p2054
sg1638
g1653
ssS'afmfiles'
p2055
(lp2056
g2054
aS'/Users/Angelica/anaconda/lib/python2.7/site-packages/matplotlib/mpl-data/fonts/pdfcorefonts/Courier-Oblique.afm'
p2057
aS'/Users/Angelica/anaconda/lib/python2.7/site-packages/matplotlib/mpl-data/fonts/afm/pbkdi8a.afm'
p2058
aS'/Users/Angelica/anaconda/lib/python2.7/site-packages/matplotlib/mpl-data/fonts/pdfcorefonts/Courier-BoldOblique.afm'
p2059
aS'/Users/Angelica/anaconda/lib/python2.7/site-packages/matplotlib/mpl-data/fonts/afm/pagk8a.afm'
p2060
aS'/Users/Angelica/anaconda/lib/python2.7/site-packages/matplotlib/mpl-data/fonts/afm/pbkd8a.afm'
p2061
aS'/Users/Angelica/anaconda/lib/python2.7/site-packages/matplotlib/mpl-data/fonts/afm/cmmi10.afm'
p2062
aS'/Users/Angelica/anaconda/lib/python2.7/site-packages/matplotlib/mpl-data/fonts/afm/phvr8an.afm'
p2063
aS'/Users/Angelica/anaconda/lib/python2.7/site-packages/matplotlib/mpl-data/fonts/afm/pagdo8a.afm'
p2064
aS'/Users/Angelica/anaconda/lib/python2.7/site-packages/matplotlib/mpl-data/fonts/afm/ptmb8a.afm'
p2065
aS'/Users/Angelica/anaconda/lib/python2.7/site-packages/matplotlib/mpl-data/fonts/afm/ptmbi8a.afm'
p2066
aS'/Users/Angelica/anaconda/lib/python2.7/site-packages/matplotlib/mpl-data/fonts/pdfcorefonts/Helvetica-Bold.afm'
p2067
aS'/Users/Angelica/anaconda/lib/python2.7/site-packages/matplotlib/mpl-data/fonts/afm/phvb8a.afm'
p2068
aS'/Users/Angelica/anaconda/lib/python2.7/site-packages/matplotlib/mpl-data/fonts/afm/pcrbo8a.afm'
p2069
aS'/Users/Angelica/anaconda/lib/python2.7/site-packages/matplotlib/mpl-data/fonts/pdfcorefonts/Courier-Bold.afm'
p2070
aS'/Users/Angelica/anaconda/lib/python2.7/site-packages/matplotlib/mpl-data/fonts/afm/pncr8a.afm'
p2071
aS'/Users/Angelica/anaconda/lib/python2.7/site-packages/matplotlib/mpl-data/fonts/afm/pagd8a.afm'
p2072
aS'/Users/Angelica/anaconda/lib/python2.7/site-packages/matplotlib/mpl-data/fonts/afm/cmr10.afm'
p2073
aS'/Users/Angelica/anaconda/lib/python2.7/site-packages/matplotlib/mpl-data/fonts/afm/cmex10.afm'
p2074
aS'/Users/Angelica/anaconda/lib/python2.7/site-packages/matplotlib/mpl-data/fonts/afm/pcrro8a.afm'
p2075
aS'/Users/Angelica/anaconda/lib/python2.7/site-packages/matplotlib/mpl-data/fonts/afm/phvbo8a.afm'
p2076
aS'/Users/Angelica/anaconda/lib/python2.7/site-packages/matplotlib/mpl-data/fonts/pdfcorefonts/Times-Italic.afm'
p2077
aS'/Users/Angelica/anaconda/lib/python2.7/site-packages/matplotlib/mpl-data/fonts/afm/phvro8an.afm'
p2078
aS'/Users/Angelica/anaconda/lib/python2.7/site-packages/matplotlib/mpl-data/fonts/afm/pplb8a.afm'
p2079
aS'/Users/Angelica/anaconda/lib/python2.7/site-packages/matplotlib/mpl-data/fonts/afm/pzdr.afm'
p2080
aS'/Users/Angelica/anaconda/lib/python2.7/site-packages/matplotlib/mpl-data/fonts/afm/cmsy10.afm'
p2081
aS'/Users/Angelica/anaconda/lib/python2.7/site-packages/matplotlib/mpl-data/fonts/afm/phvbo8an.afm'
p2082
aS'/Users/Angelica/anaconda/lib/python2.7/site-packages/matplotlib/mpl-data/fonts/pdfcorefonts/Helvetica-Oblique.afm'
p2083
aS'/Users/Angelica/anaconda/lib/python2.7/site-packages/matplotlib/mpl-data/fonts/afm/pbkli8a.afm'
p2084
aS'/Users/Angelica/anaconda/lib/python2.7/site-packages/matplotlib/mpl-data/fonts/afm/pplri8a.afm'
p2085
aS'/Users/Angelica/anaconda/lib/python2.7/site-packages/matplotlib/mpl-data/fonts/pdfcorefonts/Helvetica.afm'
p2086
aS'/Users/Angelica/anaconda/lib/python2.7/site-packages/matplotlib/mpl-data/fonts/pdfcorefonts/Times-Roman.afm'
p2087
aS'/Users/Angelica/anaconda/lib/python2.7/site-packages/matplotlib/mpl-data/fonts/afm/ptmr8a.afm'
p2088
aS'/Users/Angelica/anaconda/lib/python2.7/site-packages/matplotlib/mpl-data/fonts/afm/pbkl8a.afm'
p2089
aS'/Users/Angelica/anaconda/lib/python2.7/site-packages/matplotlib/mpl-data/fonts/afm/phvr8a.afm'
p2090
aS'/Users/Angelica/anaconda/lib/python2.7/site-packages/matplotlib/mpl-data/fonts/afm/putr8a.afm'
p2091
aS'/Users/Angelica/anaconda/lib/python2.7/site-packages/matplotlib/mpl-data/fonts/afm/putbi8a.afm'
p2092
aS'/Users/Angelica/anaconda/lib/python2.7/site-packages/matplotlib/mpl-data/fonts/pdfcorefonts/Symbol.afm'
p2093
aS'/Users/Angelica/anaconda/lib/python2.7/site-packages/matplotlib/mpl-data/fonts/afm/pagko8a.afm'
p2094
aS'/Users/Angelica/anaconda/lib/python2.7/site-packages/matplotlib/mpl-data/fonts/afm/pncb8a.afm'
p2095
aS'/Users/Angelica/anaconda/lib/python2.7/site-packages/matplotlib/mpl-data/fonts/afm/pncri8a.afm'
p2096
aS'/Users/Angelica/anaconda/lib/python2.7/site-packages/matplotlib/mpl-data/fonts/pdfcorefonts/ZapfDingbats.afm'
p2097
aS'/Users/Angelica/anaconda/lib/python2.7/site-packages/matplotlib/mpl-data/fonts/afm/pplr8a.afm'
p2098
aS'/Users/Angelica/anaconda/lib/python2.7/site-packages/matplotlib/mpl-data/fonts/afm/psyr.afm'
p2099
aS'/Users/Angelica/anaconda/lib/python2.7/site-packages/matplotlib/mpl-data/fonts/pdfcorefonts/Times-BoldItalic.afm'
p2100
aS'/Users/Angelica/anaconda/lib/python2.7/site-packages/matplotlib/mpl-data/fonts/afm/ptmri8a.afm'
p2101
aS'/Users/Angelica/anaconda/lib/python2.7/site-packages/matplotlib/mpl-data/fonts/afm/pplbi8a.afm'
p2102
aS'/Users/Angelica/anaconda/lib/python2.7/site-packages/matplotlib/mpl-data/fonts/pdfcorefonts/Courier.afm'
p2103
aS'/Users/Angelica/anaconda/lib/python2.7/site-packages/matplotlib/mpl-data/fonts/afm/pncbi8a.afm'
p2104
aS'/Users/Angelica/anaconda/lib/python2.7/site-packages/matplotlib/mpl-data/fonts/afm/pcrb8a.afm'
p2105
aS'/Users/Angelica/anaconda/lib/python2.7/site-packages/matplotlib/mpl-data/fonts/afm/pcrr8a.afm'
p2106
aS'/Users/Angelica/anaconda/lib/python2.7/site-packages/matplotlib/mpl-data/fonts/afm/cmtt10.afm'
p2107
aS'/Users/Angelica/anaconda/lib/python2.7/site-packages/matplotlib/mpl-data/fonts/pdfcorefonts/Helvetica-BoldOblique.afm'
p2108
aS'/Users/Angelica/anaconda/lib/python2.7/site-packages/matplotlib/mpl-data/fonts/afm/putb8a.afm'
p2109
aS'/Users/Angelica/anaconda/lib/python2.7/site-packages/matplotlib/mpl-data/fonts/afm/phvro8a.afm'
p2110
aS'/Users/Angelica/anaconda/lib/python2.7/site-packages/matplotlib/mpl-data/fonts/afm/putri8a.afm'
p2111
aS'/Users/Angelica/anaconda/lib/python2.7/site-packages/matplotlib/mpl-data/fonts/pdfcorefonts/Times-Bold.afm'
p2112
aS'/Users/Angelica/anaconda/lib/python2.7/site-packages/matplotlib/mpl-data/fonts/afm/pzcmi8a.afm'
p2113
aS'/Users/Angelica/anaconda/lib/python2.7/site-packages/matplotlib/mpl-data/fonts/afm/phvb8an.afm'
p2114
aS'/Users/Angelica/anaconda/lib/python2.7/site-packages/matplotlib/mpl-data/fonts/afm/phvlo8a.afm'
p2115
asS'afmlist'
p2116
(lp2117
g7
(g8
g9
NtRp2118
(dp2119
g12
g13
sg14
S'Helvetica'
p2120
sg16
I200
sg17
g13
sg18
g13
sg19
g2054
sg21
g22
sbag7
(g8
g9
NtRp2121
(dp2122
g12
g58
sg14
S'Courier'
p2123
sg16
I500
sg17
g13
sg18
g13
sg19
g2057
sg21
g22
sbag7
(g8
g9
NtRp2124
(dp2125
g12
g58
sg14
S'ITC Bookman'
p2126
sg16
I600
sg17
g13
sg18
g13
sg19
g2058
sg21
g22
sbag7
(g8
g9
NtRp2127
(dp2128
g12
g58
sg14
S'Courier'
p2129
sg16
I700
sg17
g13
sg18
g13
sg19
g2059
sg21
g22
sbag7
(g8
g9
NtRp2130
(dp2131
g12
g13
sg14
S'ITC Avant Garde Gothic'
p2132
sg16
I400
sg17
g13
sg18
g13
sg19
g2060
sg21
g22
sbag7
(g8
g9
NtRp2133
(dp2134
g12
g13
sg14
S'ITC Bookman'
p2135
sg16
I600
sg17
g13
sg18
g13
sg19
g2061
sg21
g22
sbag7
(g8
g9
NtRp2136
(dp2137
g12
g58
sg14
S'Computer Modern'
p2138
sg16
I500
sg17
g13
sg18
g13
sg19
g2062
sg21
g22
sbag7
(g8
g9
NtRp2139
(dp2140
g12
g13
sg14
S'Helvetica'
p2141
sg16
I500
sg17
g168
sg18
g13
sg19
g2063
sg21
g22
sbag7
(g8
g9
NtRp2142
(dp2143
g12
g58
sg14
S'ITC Avant Garde Gothic'
p2144
sg16
I600
sg17
g13
sg18
g13
sg19
g2064
sg21
g22
sbag7
(g8
g9
NtRp2145
(dp2146
g12
g13
sg14
S'Times'
p2147
sg16
I700
sg17
g13
sg18
g13
sg19
g2065
sg21
g22
sbag7
(g8
g9
NtRp2148
(dp2149
g12
g58
sg14
S'Times'
p2150
sg16
I700
sg17
g13
sg18
g13
sg19
g2066
sg21
g22
sbag7
(g8
g9
NtRp2151
(dp2152
g12
g13
sg14
S'Helvetica'
p2153
sg16
I700
sg17
g13
sg18
g13
sg19
g2067
sg21
g22
sbag7
(g8
g9
NtRp2154
(dp2155
g12
g13
sg14
S'Helvetica'
p2156
sg16
I700
sg17
g13
sg18
g13
sg19
g2068
sg21
g22
sbag7
(g8
g9
NtRp2157
(dp2158
g12
g58
sg14
S'Courier'
p2159
sg16
I700
sg17
g13
sg18
g13
sg19
g2069
sg21
g22
sbag7
(g8
g9
NtRp2160
(dp2161
g12
g13
sg14
S'Courier'
p2162
sg16
I700
sg17
g13
sg18
g13
sg19
g2070
sg21
g22
sbag7
(g8
g9
NtRp2163
(dp2164
g12
g13
sg14
S'New Century Schoolbook'
p2165
sg16
I500
sg17
g13
sg18
g13
sg19
g2071
sg21
g22
sbag7
(g8
g9
NtRp2166
(dp2167
g12
g13
sg14
S'ITC Avant Garde Gothic'
p2168
sg16
I600
sg17
g13
sg18
g13
sg19
g2072
sg21
g22
sbag7
(g8
g9
NtRp2169
(dp2170
g12
g13
sg14
S'Computer Modern'
p2171
sg16
I500
sg17
g13
sg18
g13
sg19
g2073
sg21
g22
sbag7
(g8
g9
NtRp2172
(dp2173
g12
g13
sg14
S'Computer Modern'
p2174
sg16
I500
sg17
g13
sg18
g13
sg19
g2074
sg21
g22
sbag7
(g8
g9
NtRp2175
(dp2176
g12
g58
sg14
S'Courier'
p2177
sg16
I500
sg17
g13
sg18
g13
sg19
g2075
sg21
g22
sbag7
(g8
g9
NtRp2178
(dp2179
g12
g58
sg14
S'Helvetica'
p2180
sg16
I700
sg17
g13
sg18
g13
sg19
g2076
sg21
g22
sbag7
(g8
g9
NtRp2181
(dp2182
g12
g58
sg14
S'Times'
p2183
sg16
I500
sg17
g13
sg18
g13
sg19
g2077
sg21
g22
sbag7
(g8
g9
NtRp2184
(dp2185
g12
g58
sg14
S'Helvetica'
p2186
sg16
I500
sg17
g168
sg18
g13
sg19
g2078
sg21
g22
sbag7
(g8
g9
NtRp2187
(dp2188
g12
g13
sg14
S'Palatino'
p2189
sg16
I700
sg17
g13
sg18
g13
sg19
g2079
sg21
g22
sbag7
(g8
g9
NtRp2190
(dp2191
g12
g13
sg14
S'ITC Zapf Dingbats'
p2192
sg16
I500
sg17
g13
sg18
g13
sg19
g2080
sg21
g22
sbag7
(g8
g9
NtRp2193
(dp2194
g12
g58
sg14
S'Computer Modern'
p2195
sg16
I500
sg17
g13
sg18
g13
sg19
g2081
sg21
g22
sbag7
(g8
g9
NtRp2196
(dp2197
g12
g58
sg14
S'Helvetica'
p2198
sg16
I700
sg17
g168
sg18
g13
sg19
g2082
sg21
g22
sbag7
(g8
g9
NtRp2199
(dp2200
g12
g58
sg14
S'Helvetica'
p2201
sg16
I500
sg17
g13
sg18
g13
sg19
g2083
sg21
g22
sbag7
(g8
g9
NtRp2202
(dp2203
g12
g58
sg14
S'ITC Bookman'
p2204
sg16
I200
sg17
g13
sg18
g13
sg19
g2084
sg21
g22
sbag7
(g8
g9
NtRp2205
(dp2206
g12
g58
sg14
S'Palatino'
p2207
sg16
I500
sg17
g13
sg18
g13
sg19
g2085
sg21
g22
sbag7
(g8
g9
NtRp2208
(dp2209
g12
g13
sg14
S'Helvetica'
p2210
sg16
I500
sg17
g13
sg18
g13
sg19
g2086
sg21
g22
sbag7
(g8
g9
NtRp2211
(dp2212
g12
g13
sg14
S'Times'
p2213
sg16
I500
sg17
g13
sg18
g13
sg19
g2087
sg21
g22
sbag7
(g8
g9
NtRp2214
(dp2215
g12
g13
sg14
S'Times'
p2216
sg16
I500
sg17
g13
sg18
g13
sg19
g2088
sg21
g22
sbag7
(g8
g9
NtRp2217
(dp2218
g12
g13
sg14
S'ITC Bookman'
p2219
sg16
I200
sg17
g13
sg18
g13
sg19
g2089
sg21
g22
sbag7
(g8
g9
NtRp2220
(dp2221
g12
g13
sg14
S'Helvetica'
p2222
sg16
I500
sg17
g13
sg18
g13
sg19
g2090
sg21
g22
sbag7
(g8
g9
NtRp2223
(dp2224
g12
g13
sg14
S'Utopia'
p2225
sg16
I400
sg17
g13
sg18
g13
sg19
g2091
sg21
g22
sbag7
(g8
g9
NtRp2226
(dp2227
g12
g58
sg14
S'Utopia'
p2228
sg16
I700
sg17
g13
sg18
g13
sg19
g2092
sg21
g22
sbag7
(g8
g9
NtRp2229
(dp2230
g12
g13
sg14
S'Symbol'
p2231
sg16
I500
sg17
g13
sg18
g13
sg19
g2093
sg21
g22
sbag7
(g8
g9
NtRp2232
(dp2233
g12
g58
sg14
S'ITC Avant Garde Gothic'
p2234
sg16
I400
sg17
g13
sg18
g13
sg19
g2094
sg21
g22
sbag7
(g8
g9
NtRp2235
(dp2236
g12
g13
sg14
S'New Century Schoolbook'
p2237
sg16
I700
sg17
g13
sg18
g13
sg19
g2095
sg21
g22
sbag7
(g8
g9
NtRp2238
(dp2239
g12
g58
sg14
S'New Century Schoolbook'
p2240
sg16
I500
sg17
g13
sg18
g13
sg19
g2096
sg21
g22
sbag7
(g8
g9
NtRp2241
(dp2242
g12
g13
sg14
S'ZapfDingbats'
p2243
sg16
I500
sg17
g13
sg18
g13
sg19
g2097
sg21
g22
sbag7
(g8
g9
NtRp2244
(dp2245
g12
g13
sg14
S'Palatino'
p2246
sg16
I500
sg17
g13
sg18
g13
sg19
g2098
sg21
g22
sbag7
(g8
g9
NtRp2247
(dp2248
g12
g13
sg14
S'Symbol'
p2249
sg16
I500
sg17
g13
sg18
g13
sg19
g2099
sg21
g22
sbag7
(g8
g9
NtRp2250
(dp2251
g12
g58
sg14
S'Times'
p2252
sg16
I700
sg17
g13
sg18
g13
sg19
g2100
sg21
g22
sbag7
(g8
g9
NtRp2253
(dp2254
g12
g58
sg14
S'Times'
p2255
sg16
I500
sg17
g13
sg18
g13
sg19
g2101
sg21
g22
sbag7
(g8
g9
NtRp2256
(dp2257
g12
g58
sg14
S'Palatino'
p2258
sg16
I700
sg17
g13
sg18
g13
sg19
g2102
sg21
g22
sbag7
(g8
g9
NtRp2259
(dp2260
g12
g13
sg14
S'Courier'
p2261
sg16
I500
sg17
g13
sg18
g13
sg19
g2103
sg21
g22
sbag7
(g8
g9
NtRp2262
(dp2263
g12
g58
sg14
S'New Century Schoolbook'
p2264
sg16
I700
sg17
g13
sg18
g13
sg19
g2104
sg21
g22
sbag7
(g8
g9
NtRp2265
(dp2266
g12
g13
sg14
S'Courier'
p2267
sg16
I700
sg17
g13
sg18
g13
sg19
g2105
sg21
g22
sbag7
(g8
g9
NtRp2268
(dp2269
g12
g13
sg14
S'Courier'
p2270
sg16
I500
sg17
g13
sg18
g13
sg19
g2106
sg21
g22
sbag7
(g8
g9
NtRp2271
(dp2272
g12
g13
sg14
S'Computer Modern'
p2273
sg16
I500
sg17
g13
sg18
g13
sg19
g2107
sg21
g22
sbag7
(g8
g9
NtRp2274
(dp2275
g12
g58
sg14
S'Helvetica'
p2276
sg16
I700
sg17
g13
sg18
g13
sg19
g2108
sg21
g22
sbag7
(g8
g9
NtRp2277
(dp2278
g12
g13
sg14
S'Utopia'
p2279
sg16
I700
sg17
g13
sg18
g13
sg19
g2109
sg21
g22
sbag7
(g8
g9
NtRp2280
(dp2281
g12
g58
sg14
S'Helvetica'
p2282
sg16
I500
sg17
g13
sg18
g13
sg19
g2110
sg21
g22
sbag7
(g8
g9
NtRp2283
(dp2284
g12
g58
sg14
S'Utopia'
p2285
sg16
I400
sg17
g13
sg18
g13
sg19
g2111
sg21
g22
sbag7
(g8
g9
NtRp2286
(dp2287
g12
g13
sg14
S'Times'
p2288
sg16
I700
sg17
g13
sg18
g13
sg19
g2112
sg21
g22
sbag7
(g8
g9
NtRp2289
(dp2290
g12
g58
sg14
S'ITC Zapf Chancery'
p2291
sg16
I500
sg17
g13
sg18
g13
sg19
g2113
sg21
g22
sbag7
(g8
g9
NtRp2292
(dp2293
g12
g13
sg14
S'Helvetica'
p2294
sg16
I700
sg17
g168
sg18
g13
sg19
g2114
sg21
g22
sbag7
(g8
g9
NtRp2295
(dp2296
g12
g58
sg14
S'Helvetica'
p2297
sg16
I200
sg17
g13
sg18
g13
sg19
g2115
sg21
g22
sbasb.